(lp0
(lp1
F0.0
aF0.0
aF0.10000000149011612
aF0.05000000074505806
aa(lp2
F0.0
aF0.0
aF0.10000000149011612
aF0.05000000074505806
aa(lp3
F0.0
aF0.0
aF0.10000000149011612
aF0.05000000074505806
aa(lp4
F0.0
aF0.0
aF0.10000000149011612
aF0.05000000074505806
aa(lp5
F0.0
aF0.0
aF0.10000000149011612
aF0.05000000074505806
aa(lp6
F0.0
aF0.0
aF0.10000000149011612
aF0.05000000074505806
aa(lp7
F0.0
aF0.0
aF0.10000000149011612
aF0.05000000074505806
aa(lp8
F0.0
aF0.0
aF0.10000000149011612
aF0.05000000074505806
aa(lp9
F0.0
aF0.0
aF0.10000000149011612
aF0.05000000074505806
aa(lp10
F0.0
aF0.0
aF0.10000000149011612
aF0.05000000074505806
aa(lp11
F0.0
aF0.0
aF0.10000000149011612
aF0.05000000074505806
aa(lp12
F0.0
aF0.0
aF0.10000000149011612
aF0.05000000074505806
aa(lp13
F0.0
aF0.0
aF0.10000000149011612
aF0.05000000074505806
aa(lp14
F0.0
aF0.0
aF0.10000000149011612
aF0.05000000074505806
aa(lp15
F0.0
aF0.0
aF0.10000000149011612
aF0.05000000074505806
aa(lp16
F0.0
aF0.0
aF0.10000000149011612
aF0.05000000074505806
aa(lp17
F0.0
aF0.0
aF0.10000000149011612
aF0.05000000074505806
aa(lp18
F0.0
aF0.0
aF0.10000000149011612
aF0.05000000074505806
aa(lp19
F0.0
aF0.0
aF0.10000000149011612
aF0.05000000074505806
aa(lp20
F0.0
aF0.0
aF0.10000000149011612
aF0.05000000074505806
aa(lp21
F0.0
aF0.0
aF0.10000000149011612
aF0.05000000074505806
aa(lp22
F0.0
aF0.0
aF0.10000000149011612
aF0.05000000074505806
aa(lp23
F0.0
aF0.0
aF0.10000000149011612
aF0.05000000074505806
aa(lp24
F0.0
aF0.0
aF0.10000000149011612
aF0.05000000074505806
aa(lp25
F0.0
aF0.0
aF0.10000000149011612
aF0.05000000074505806
aa(lp26
F0.0
aF0.0
aF0.10000000149011612
aF0.05000000074505806
aa(lp27
F0.0
aF0.0
aF0.10000000149011612
aF0.05000000074505806
aa(lp28
F0.0
aF0.0
aF0.10000000149011612
aF0.05000000074505806
aa(lp29
F0.0
aF0.0
aF0.10000000149011612
aF0.05000000074505806
aa(lp30
F0.0
aF0.0
aF0.10000000149011612
aF0.05000000074505806
aa(lp31
F0.0
aF0.0
aF0.10000000149011612
aF0.05000000074505806
aa(lp32
F0.0
aF0.0
aF0.10000000149011612
aF0.05000000074505806
aa(lp33
F0.0
aF0.0
aF0.10000000149011612
aF0.05000000074505806
aa(lp34
F0.0
aF0.0
aF0.10000000149011612
aF0.05000000074505806
aa(lp35
F0.0
aF0.0
aF0.10000000149011612
aF0.05000000074505806
aa(lp36
F0.0
aF0.0
aF0.10000000149011612
aF0.05000000074505806
aa(lp37
F0.0
aF0.0
aF0.10000000149011612
aF0.05000000074505806
aa(lp38
F0.0
aF0.0
aF0.10000000149011612
aF0.05000000074505806
aa(lp39
F0.0
aF0.0
aF0.10000000149011612
aF0.05000000074505806
aa(lp40
F0.0
aF0.0
aF0.10000000149011612
aF0.05000000074505806
aa(lp41
F0.0
aF0.0
aF0.10000000149011612
aF0.05000000074505806
aa(lp42
F0.0
aF0.0
aF0.10000000149011612
aF0.05000000074505806
aa(lp43
F0.0
aF0.0
aF0.10000000149011612
aF0.05000000074505806
aa(lp44
F0.0
aF0.0
aF0.10000000149011612
aF0.05000000074505806
aa(lp45
F0.0
aF0.0
aF0.10000000149011612
aF0.05000000074505806
aa(lp46
F0.0
aF0.0
aF0.10000000149011612
aF0.05000000074505806
aa(lp47
F0.0
aF0.0
aF0.10000000149011612
aF0.05000000074505806
aa(lp48
F0.0
aF0.0
aF0.10000000149011612
aF0.05000000074505806
aa(lp49
F0.0
aF0.0
aF0.10000000149011612
aF0.05000000074505806
aa(lp50
F0.0
aF0.0
aF0.10000000149011612
aF0.05000000074505806
aa(lp51
F0.0
aF0.0
aF0.10000000149011612
aF0.05000000074505806
aa(lp52
F0.0
aF0.0
aF0.10000000149011612
aF0.05000000074505806
aa(lp53
F0.0
aF0.0
aF0.10000000149011612
aF0.05000000074505806
aa(lp54
F0.0
aF0.0
aF0.10000000149011612
aF0.05000000074505806
aa(lp55
F0.0
aF0.0
aF0.10000000149011612
aF0.05000000074505806
aa(lp56
F0.0
aF0.0
aF0.10000000149011612
aF0.05000000074505806
aa(lp57
F0.0
aF0.0
aF0.10000000149011612
aF0.05000000074505806
aa(lp58
F0.0
aF0.0
aF0.10000000149011612
aF0.05000000074505806
aa(lp59
F0.0
aF0.0
aF0.10000000149011612
aF0.05000000074505806
aa(lp60
F0.0
aF0.0
aF0.10000000149011612
aF0.05000000074505806
aa(lp61
F0.0
aF0.0
aF0.10000000149011612
aF0.05000000074505806
aa(lp62
F0.0
aF0.0
aF0.10000000149011612
aF0.05000000074505806
aa(lp63
F0.0
aF0.0
aF0.10000000149011612
aF0.05000000074505806
aa(lp64
F0.0
aF0.0
aF0.10000000149011612
aF0.05000000074505806
aa(lp65
F0.0
aF0.0
aF0.10000000149011612
aF0.05000000074505806
aa(lp66
F0.0
aF0.0
aF0.10000000149011612
aF0.05000000074505806
aa(lp67
F0.0
aF0.0
aF0.10000000149011612
aF0.05000000074505806
aa(lp68
F0.0
aF0.0
aF0.10000000149011612
aF0.05000000074505806
aa(lp69
F0.0
aF0.0
aF0.10000000149011612
aF0.05000000074505806
aa(lp70
F0.0
aF0.0
aF0.10000000149011612
aF0.05000000074505806
aa(lp71
F0.0
aF0.0
aF0.10000000149011612
aF0.05000000074505806
aa(lp72
F0.0
aF0.0
aF0.10000000149011612
aF0.05000000074505806
aa(lp73
F0.0
aF0.0
aF0.10000000149011612
aF0.05000000074505806
aa(lp74
F0.0
aF0.0
aF0.10000000149011612
aF0.05000000074505806
aa(lp75
F0.0
aF0.0
aF0.10000000149011612
aF0.05000000074505806
aa(lp76
F0.0
aF0.0
aF0.10000000149011612
aF0.05000000074505806
aa(lp77
F0.0
aF0.0
aF0.10000000149011612
aF0.05000000074505806
aa(lp78
F0.0
aF0.0
aF0.10000000149011612
aF0.05000000074505806
aa(lp79
F0.0
aF0.0
aF0.10000000149011612
aF0.05000000074505806
aa(lp80
F0.0
aF0.0
aF0.10000000149011612
aF0.05000000074505806
aa(lp81
F0.0
aF0.0
aF0.10000000149011612
aF0.05000000074505806
aa(lp82
F0.0
aF0.0
aF0.10000000149011612
aF0.05000000074505806
aa(lp83
F0.0
aF0.0
aF0.10000000149011612
aF0.05000000074505806
aa(lp84
F0.0
aF0.0
aF0.10000000149011612
aF0.05000000074505806
aa(lp85
F0.0
aF0.0
aF0.10000000149011612
aF0.05000000074505806
aa(lp86
F0.0
aF0.0
aF0.10000000149011612
aF0.05000000074505806
aa(lp87
F0.0
aF0.0
aF0.10000000149011612
aF0.05000000074505806
aa(lp88
F0.0
aF0.0
aF0.10000000149011612
aF0.05000000074505806
aa(lp89
F0.0
aF0.0
aF0.10000000149011612
aF0.05000000074505806
aa(lp90
F0.0
aF0.0
aF0.10000000149011612
aF0.05000000074505806
aa(lp91
F0.0
aF0.0
aF0.10000000149011612
aF0.05000000074505806
aa(lp92
F0.0
aF0.0
aF0.10000000149011612
aF0.05000000074505806
aa(lp93
F0.0
aF0.0
aF0.10000000149011612
aF0.05000000074505806
aa(lp94
F0.0
aF0.0
aF0.10000000149011612
aF0.05000000074505806
aa(lp95
F0.0
aF0.0
aF0.10000000149011612
aF0.05000000074505806
aa(lp96
F0.0
aF0.0
aF0.10000000149011612
aF0.05000000074505806
aa(lp97
F0.0
aF0.0
aF0.10000000149011612
aF0.05000000074505806
aa(lp98
F0.0
aF0.0
aF0.10000000149011612
aF0.05000000074505806
aa(lp99
F0.0
aF0.0
aF0.10000000149011612
aF0.05000000074505806
aa(lp100
F0.0
aF0.0
aF0.10000000149011612
aF0.05000000074505806
aa(lp101
F0.0
aF0.0
aF0.10000000149011612
aF0.05000000074505806
aa(lp102
F0.0
aF0.0
aF0.10000000149011612
aF0.05000000074505806
aa(lp103
F0.0
aF0.0
aF0.10000000149011612
aF0.05000000074505806
aa(lp104
F0.0
aF0.0
aF0.10000000149011612
aF0.05000000074505806
aa(lp105
F0.0
aF0.0
aF0.10000000149011612
aF0.05000000074505806
aa(lp106
F0.0
aF0.0
aF0.10000000149011612
aF0.05000000074505806
aa(lp107
F0.0
aF0.0
aF0.10000000149011612
aF0.05000000074505806
aa(lp108
F0.0
aF0.0
aF0.10000000149011612
aF0.05000000074505806
aa(lp109
F0.0
aF0.0
aF0.10000000149011612
aF0.05000000074505806
aa(lp110
F0.0
aF0.0
aF0.10000000149011612
aF0.05000000074505806
aa(lp111
F0.0
aF0.0
aF0.10000000149011612
aF0.05000000074505806
aa(lp112
F0.0
aF0.0
aF0.10000000149011612
aF0.05000000074505806
aa(lp113
F0.0
aF0.0
aF0.10000000149011612
aF0.05000000074505806
aa(lp114
F0.0
aF0.0
aF0.10000000149011612
aF0.05000000074505806
aa(lp115
F0.0
aF0.0
aF0.10000000149011612
aF0.05000000074505806
aa(lp116
F0.0
aF0.0
aF0.10000000149011612
aF0.05000000074505806
aa(lp117
F0.0
aF-0.02499999850988388
aF0.10000000149011612
aF0.05000000074505806
aa(lp118
F0.0
aF-0.07499999552965164
aF0.10000000149011612
aF0.05000000074505806
aa(lp119
F0.0
aF-0.07499999552965164
aF0.10000000149011612
aF0.05000000074505806
aa(lp120
F0.0
aF-0.09999999403953552
aF0.10000000149011612
aF0.05000000074505806
aa(lp121
F0.0
aF-0.09999999403953552
aF0.10000000149011612
aF0.05000000074505806
aa(lp122
F0.0
aF-0.09999999403953552
aF0.10000000149011612
aF0.05000000074505806
aa(lp123
F0.0
aF-0.14999999105930328
aF0.10000000149011612
aF0.05000000074505806
aa(lp124
F0.0
aF-0.19999998807907104
aF0.10000000149011612
aF0.05000000074505806
aa(lp125
F0.0
aF-0.19999998807907104
aF0.10000000149011612
aF0.05000000074505806
aa(lp126
F0.0
aF-0.19999998807907104
aF0.10000000149011612
aF0.05000000074505806
aa(lp127
F0.0
aF-0.19999998807907104
aF0.10000000149011612
aF0.05000000074505806
aa(lp128
F0.0
aF-0.22499999403953552
aF0.10000000149011612
aF0.05000000074505806
aa(lp129
F0.0
aF-0.22499999403953552
aF0.10000000149011612
aF0.05000000074505806
aa(lp130
F0.0
aF-0.22499999403953552
aF0.125
aF0.05000000074505806
aa(lp131
F0.0
aF-0.22499999403953552
aF0.125
aF0.05000000074505806
aa(lp132
F0.0
aF-0.22499999403953552
aF0.15000000596046448
aF0.05000000074505806
aa(lp133
F0.0
aF-0.22499999403953552
aF0.20000000298023224
aF0.05000000074505806
aa(lp134
F0.0
aF-0.22499999403953552
aF0.22499999403953552
aF0.05000000074505806
aa(lp135
F0.0
aF-0.22499999403953552
aF0.22499999403953552
aF0.05000000074505806
aa(lp136
F0.0
aF-0.22499999403953552
aF0.22499999403953552
aF0.05000000074505806
aa(lp137
F0.0
aF-0.22499999403953552
aF0.25
aF0.05000000074505806
aa(lp138
F0.0
aF-0.22499999403953552
aF0.2750000059604645
aF0.05000000074505806
aa(lp139
F0.0
aF-0.22499999403953552
aF0.30000001192092896
aF0.05000000074505806
aa(lp140
F0.0
aF-0.22499999403953552
aF0.30000001192092896
aF0.05000000074505806
aa(lp141
F0.0
aF-0.22499999403953552
aF0.30000001192092896
aF0.05000000074505806
aa(lp142
F0.0
aF-0.22499999403953552
aF0.32500001788139343
aF0.05000000074505806
aa(lp143
F0.0
aF-0.22499999403953552
aF0.32500001788139343
aF0.05000000074505806
aa(lp144
F0.0
aF-0.22499999403953552
aF0.3500000238418579
aF0.05000000074505806
aa(lp145
F0.0
aF-0.22499999403953552
aF0.3750000298023224
aF0.05000000074505806
aa(lp146
F0.0
aF-0.22499999403953552
aF0.42500001192092896
aF0.05000000074505806
aa(lp147
F0.0
aF-0.22499999403953552
aF0.42500001192092896
aF0.05000000074505806
aa(lp148
F0.0
aF-0.22499999403953552
aF0.45000001788139343
aF0.05000000074505806
aa(lp149
F0.0
aF-0.22499999403953552
aF0.4750000238418579
aF0.05000000074505806
aa(lp150
F0.0
aF-0.22499999403953552
aF0.4750000238418579
aF0.05000000074505806
aa(lp151
F0.0
aF-0.22499999403953552
aF0.4750000238418579
aF0.05000000074505806
aa(lp152
F0.0
aF-0.22499999403953552
aF0.5
aF0.05000000074505806
aa(lp153
F0.0
aF-0.22499999403953552
aF0.5249999761581421
aF0.05000000074505806
aa(lp154
F0.0
aF-0.22499999403953552
aF0.5249999761581421
aF0.05000000074505806
aa(lp155
F0.0
aF-0.22499999403953552
aF0.5499999523162842
aF0.05000000074505806
aa(lp156
F0.0
aF-0.22499999403953552
aF0.5499999523162842
aF0.05000000074505806
aa(lp157
F0.0
aF-0.22499999403953552
aF0.5749999284744263
aF0.05000000074505806
aa(lp158
F0.0
aF-0.22499999403953552
aF0.5999999046325684
aF0.05000000074505806
aa(lp159
F0.0
aF-0.22499999403953552
aF0.5999999046325684
aF0.05000000074505806
aa(lp160
F0.0
aF-0.22499999403953552
aF0.6249998807907104
aF0.05000000074505806
aa(lp161
F0.0
aF-0.22499999403953552
aF0.6249998807907104
aF0.05000000074505806
aa(lp162
F0.0
aF-0.22499999403953552
aF0.6499998569488525
aF0.05000000074505806
aa(lp163
F0.0
aF-0.22499999403953552
aF0.6749998331069946
aF0.05000000074505806
aa(lp164
F0.0
aF-0.22499999403953552
aF0.6999998092651367
aF0.05000000074505806
aa(lp165
F0.0
aF-0.22499999403953552
aF0.6999998092651367
aF0.05000000074505806
aa(lp166
F0.0
aF-0.22499999403953552
aF0.7249997854232788
aF0.05000000074505806
aa(lp167
F0.0
aF-0.22499999403953552
aF0.7499997615814209
aF0.05000000074505806
aa(lp168
F0.0
aF-0.22499999403953552
aF0.7499997615814209
aF0.05000000074505806
aa(lp169
F0.0
aF-0.22499999403953552
aF0.7499997615814209
aF0.05000000074505806
aa(lp170
F0.0
aF-0.22499999403953552
aF0.774999737739563
aF0.05000000074505806
aa(lp171
F0.0
aF-0.22499999403953552
aF0.7999997138977051
aF0.05000000074505806
aa(lp172
F0.0
aF-0.22499999403953552
aF0.7999997138977051
aF0.05000000074505806
aa(lp173
F0.0
aF-0.22499999403953552
aF0.8249996900558472
aF0.05000000074505806
aa(lp174
F0.0
aF-0.22499999403953552
aF0.8749997019767761
aF0.05000000074505806
aa(lp175
F0.0
aF-0.22499999403953552
aF0.9249997138977051
aF0.05000000074505806
aa(lp176
F0.0
aF-0.22499999403953552
aF0.9499996900558472
aF0.05000000074505806
aa(lp177
F0.0
aF-0.22499999403953552
aF0.9749996662139893
aF0.05000000074505806
aa(lp178
F0.0
aF-0.22499999403953552
aF0.9749996662139893
aF0.05000000074505806
aa(lp179
F0.0
aF-0.22499999403953552
aF0.9749996662139893
aF0.05000000074505806
aa(lp180
F0.0
aF-0.22499999403953552
aF0.9999996423721313
aF0.05000000074505806
aa(lp181
F0.0
aF-0.22499999403953552
aF1.0249996185302734
aF0.05000000074505806
aa(lp182
F0.0
aF-0.22499999403953552
aF1.0249996185302734
aF0.05000000074505806
aa(lp183
F0.0
aF-0.22499999403953552
aF1.0249996185302734
aF0.05000000074505806
aa(lp184
F0.0
aF-0.22499999403953552
aF1.0499995946884155
aF0.05000000074505806
aa(lp185
F0.0
aF-0.22499999403953552
aF1.0999995470046997
aF0.05000000074505806
aa(lp186
F0.0
aF-0.22499999403953552
aF1.0999995470046997
aF0.05000000074505806
aa(lp187
F0.0
aF-0.22499999403953552
aF1.1249995231628418
aF0.05000000074505806
aa(lp188
F0.0
aF-0.22499999403953552
aF1.1499994993209839
aF0.05000000074505806
aa(lp189
F0.0
aF-0.22499999403953552
aF1.1499994993209839
aF0.05000000074505806
aa(lp190
F0.0
aF-0.22499999403953552
aF1.174999475479126
aF0.05000000074505806
aa(lp191
F0.0
aF-0.22499999403953552
aF1.174999475479126
aF0.05000000074505806
aa(lp192
F0.0
aF-0.22499999403953552
aF1.2249994277954102
aF0.05000000074505806
aa(lp193
F0.0
aF-0.22499999403953552
aF1.299999475479126
aF0.05000000074505806
aa(lp194
F0.0
aF-0.22499999403953552
aF1.299999475479126
aF0.05000000074505806
aa(lp195
F0.0
aF-0.22499999403953552
aF1.324999451637268
aF0.05000000074505806
aa(lp196
F0.0
aF-0.22499999403953552
aF1.3499994277954102
aF0.05000000074505806
aa(lp197
F0.0
aF-0.22499999403953552
aF1.3499994277954102
aF0.05000000074505806
aa(lp198
F0.0
aF-0.22499999403953552
aF1.424999475479126
aF0.05000000074505806
aa(lp199
F0.0
aF-0.22499999403953552
aF1.424999475479126
aF0.05000000074505806
aa(lp200
F0.0
aF-0.22499999403953552
aF1.4999995231628418
aF0.05000000074505806
aa(lp201
F0.0
aF-0.22499999403953552
aF1.5249994993209839
aF0.05000000074505806
aa(lp202
F0.0
aF-0.22499999403953552
aF1.5249994993209839
aF0.05000000074505806
aa(lp203
F0.0
aF-0.22499999403953552
aF1.5249994993209839
aF0.05000000074505806
aa(lp204
F0.0
aF-0.22499999403953552
aF1.5249994993209839
aF0.05000000074505806
aa(lp205
F0.0
aF-0.22499999403953552
aF1.5999995470046997
aF0.05000000074505806
aa(lp206
F0.0
aF-0.22499999403953552
aF1.6249995231628418
aF0.05000000074505806
aa(lp207
F0.0
aF-0.22499999403953552
aF1.6249995231628418
aF0.05000000074505806
aa(lp208
F0.0
aF-0.22499999403953552
aF1.6499994993209839
aF0.05000000074505806
aa(lp209
F0.0
aF-0.22499999403953552
aF1.674999475479126
aF0.05000000074505806
aa(lp210
F0.0
aF-0.22499999403953552
aF1.674999475479126
aF0.05000000074505806
aa(lp211
F0.0
aF-0.22499999403953552
aF1.699999451637268
aF0.05000000074505806
aa(lp212
F0.0
aF-0.22499999403953552
aF1.7249994277954102
aF0.05000000074505806
aa(lp213
F0.0
aF-0.22499999403953552
aF1.7249994277954102
aF0.05000000074505806
aa(lp214
F0.0
aF-0.22499999403953552
aF1.8499994277954102
aF0.05000000074505806
aa(lp215
F0.0
aF-0.22499999403953552
aF1.8749994039535522
aF0.05000000074505806
aa(lp216
F0.0
aF-0.22499999403953552
aF1.8749994039535522
aF0.05000000074505806
aa(lp217
F0.0
aF-0.22499999403953552
aF1.9249993562698364
aF0.05000000074505806
aa(lp218
F0.0
aF-0.22499999403953552
aF1.9749993085861206
aF0.05000000074505806
aa(lp219
F0.0
aF-0.22499999403953552
aF1.9749993085861206
aF0.05000000074505806
aa(lp220
F0.0
aF-0.22499999403953552
aF2.0249993801116943
aF0.05000000074505806
aa(lp221
F0.0
aF-0.22499999403953552
aF2.0249993801116943
aF0.05000000074505806
aa(lp222
F0.0
aF-0.22499999403953552
aF2.0249993801116943
aF0.05000000074505806
aa(lp223
F0.0
aF-0.22499999403953552
aF2.0749993324279785
aF0.05000000074505806
aa(lp224
F0.0
aF-0.22499999403953552
aF2.0749993324279785
aF0.05000000074505806
aa(lp225
F0.0
aF-0.22499999403953552
aF2.0749993324279785
aF0.05000000074505806
aa(lp226
F0.0
aF-0.22499999403953552
aF2.0749993324279785
aF0.05000000074505806
aa(lp227
F0.0
aF-0.22499999403953552
aF2.0749993324279785
aF0.05000000074505806
aa(lp228
F0.0
aF-0.22499999403953552
aF2.0749993324279785
aF0.05000000074505806
aa(lp229
F0.0
aF-0.22499999403953552
aF2.0749993324279785
aF0.05000000074505806
aa(lp230
F0.0
aF-0.22499999403953552
aF2.0749993324279785
aF0.05000000074505806
aa(lp231
F0.0
aF-0.22499999403953552
aF2.0749993324279785
aF0.05000000074505806
aa(lp232
F0.0
aF-0.22499999403953552
aF2.0749993324279785
aF0.05000000074505806
aa(lp233
F0.0
aF-0.22499999403953552
aF2.0749993324279785
aF0.05000000074505806
aa(lp234
F0.0
aF-0.22499999403953552
aF2.0749993324279785
aF0.05000000074505806
aa(lp235
F0.0
aF-0.22499999403953552
aF2.0749993324279785
aF0.05000000074505806
aa(lp236
F0.0
aF-0.22499999403953552
aF2.0749993324279785
aF0.05000000074505806
aa(lp237
F0.0
aF-0.22499999403953552
aF2.0749993324279785
aF0.05000000074505806
aa(lp238
F0.0
aF-0.22499999403953552
aF2.0749993324279785
aF0.05000000074505806
aa(lp239
F0.0
aF-0.22499999403953552
aF2.0749993324279785
aF0.05000000074505806
aa(lp240
F0.0
aF-0.22499999403953552
aF2.0749993324279785
aF0.05000000074505806
aa(lp241
F0.0
aF-0.22499999403953552
aF2.0749993324279785
aF0.05000000074505806
aa(lp242
F0.0
aF-0.22499999403953552
aF2.0749993324279785
aF0.05000000074505806
aa(lp243
F0.0
aF-0.22499999403953552
aF2.0749993324279785
aF0.05000000074505806
aa(lp244
F0.0
aF-0.22499999403953552
aF2.0749993324279785
aF0.05000000074505806
aa(lp245
F0.0
aF-0.22499999403953552
aF2.0749993324279785
aF0.05000000074505806
aa(lp246
F0.0
aF-0.22499999403953552
aF2.0749993324279785
aF0.05000000074505806
aa(lp247
F0.0
aF-0.22499999403953552
aF2.0749993324279785
aF0.05000000074505806
aa(lp248
F0.0
aF-0.22499999403953552
aF2.0749993324279785
aF0.05000000074505806
aa(lp249
F0.0
aF-0.22499999403953552
aF2.0749993324279785
aF0.05000000074505806
aa(lp250
F0.0
aF-0.22499999403953552
aF2.0749993324279785
aF0.05000000074505806
aa(lp251
F0.0
aF-0.22499999403953552
aF2.0749993324279785
aF0.05000000074505806
aa(lp252
F0.0
aF-0.22499999403953552
aF2.0749993324279785
aF0.05000000074505806
aa(lp253
F0.0
aF-0.22499999403953552
aF2.0749993324279785
aF0.05000000074505806
aa(lp254
F0.0
aF-0.22499999403953552
aF2.0749993324279785
aF0.05000000074505806
aa(lp255
F0.0
aF-0.22499999403953552
aF2.22499942779541
aF0.05000000074505806
aa(lp256
F0.0
aF-0.22499999403953552
aF2.22499942779541
aF0.05000000074505806
aa(lp257
F0.0
aF-0.22499999403953552
aF2.22499942779541
aF0.05000000074505806
aa(lp258
F0.0
aF-0.22499999403953552
aF2.22499942779541
aF0.05000000074505806
aa(lp259
F0.0
aF-0.22499999403953552
aF2.22499942779541
aF0.05000000074505806
aa(lp260
F0.0
aF-0.22499999403953552
aF2.22499942779541
aF0.05000000074505806
aa(lp261
F0.0
aF-0.22499999403953552
aF2.22499942779541
aF0.05000000074505806
aa(lp262
F0.0
aF-0.22499999403953552
aF2.22499942779541
aF0.05000000074505806
aa(lp263
F0.0
aF-0.22499999403953552
aF2.22499942779541
aF0.05000000074505806
aa(lp264
F0.0
aF-0.22499999403953552
aF2.22499942779541
aF0.05000000074505806
aa(lp265
F0.0
aF-0.22499999403953552
aF2.22499942779541
aF0.05000000074505806
aa(lp266
F0.0
aF-0.22499999403953552
aF2.22499942779541
aF0.05000000074505806
aa(lp267
F0.0
aF-0.22499999403953552
aF2.22499942779541
aF0.05000000074505806
aa(lp268
F0.0
aF-0.22499999403953552
aF2.22499942779541
aF0.05000000074505806
aa(lp269
F0.0
aF-0.22499999403953552
aF2.22499942779541
aF0.05000000074505806
aa(lp270
F0.0
aF-0.22499999403953552
aF2.22499942779541
aF0.05000000074505806
aa(lp271
F0.0
aF-0.22499999403953552
aF2.22499942779541
aF0.05000000074505806
aa(lp272
F0.0
aF-0.22499999403953552
aF2.22499942779541
aF0.05000000074505806
aa(lp273
F0.0
aF-0.22499999403953552
aF2.22499942779541
aF0.05000000074505806
aa(lp274
F0.0
aF-0.22499999403953552
aF2.22499942779541
aF0.05000000074505806
aa(lp275
F0.0
aF-0.22499999403953552
aF2.22499942779541
aF0.05000000074505806
aa(lp276
F0.0
aF-0.22499999403953552
aF2.22499942779541
aF0.05000000074505806
aa(lp277
F0.0
aF-0.22499999403953552
aF2.22499942779541
aF0.05000000074505806
aa(lp278
F0.0
aF-0.22499999403953552
aF2.22499942779541
aF0.05000000074505806
aa(lp279
F0.0
aF-0.22499999403953552
aF2.22499942779541
aF0.05000000074505806
aa(lp280
F0.0
aF-0.22499999403953552
aF2.22499942779541
aF0.05000000074505806
aa(lp281
F0.0
aF-0.22499999403953552
aF2.22499942779541
aF0.05000000074505806
aa(lp282
F0.0
aF-0.22499999403953552
aF2.22499942779541
aF0.05000000074505806
aa(lp283
F0.0
aF-0.22499999403953552
aF2.22499942779541
aF0.05000000074505806
aa(lp284
F0.0
aF-0.22499999403953552
aF2.22499942779541
aF0.05000000074505806
aa(lp285
F0.0
aF-0.22499999403953552
aF2.22499942779541
aF0.05000000074505806
aa(lp286
F0.0
aF-0.22499999403953552
aF2.22499942779541
aF0.05000000074505806
aa(lp287
F0.0
aF-0.22499999403953552
aF2.22499942779541
aF0.05000000074505806
aa(lp288
F0.0
aF-0.22499999403953552
aF2.22499942779541
aF0.05000000074505806
aa(lp289
F0.0
aF-0.22499999403953552
aF2.22499942779541
aF0.05000000074505806
aa(lp290
F0.0
aF-0.22499999403953552
aF2.22499942779541
aF0.05000000074505806
aa(lp291
F0.0
aF-0.22499999403953552
aF2.22499942779541
aF0.05000000074505806
aa(lp292
F0.0
aF-0.22499999403953552
aF2.22499942779541
aF0.05000000074505806
aa(lp293
F0.0
aF-0.22499999403953552
aF2.22499942779541
aF0.05000000074505806
aa(lp294
F0.0
aF-0.22499999403953552
aF2.22499942779541
aF0.05000000074505806
aa(lp295
F0.0
aF-0.22499999403953552
aF2.22499942779541
aF0.05000000074505806
aa(lp296
F0.0
aF-0.22499999403953552
aF2.22499942779541
aF0.05000000074505806
aa(lp297
F0.0
aF-0.22499999403953552
aF2.22499942779541
aF0.05000000074505806
aa(lp298
F0.0
aF-0.22499999403953552
aF2.22499942779541
aF0.05000000074505806
aa(lp299
F0.0
aF-0.22499999403953552
aF2.22499942779541
aF0.05000000074505806
aa(lp300
F0.0
aF-0.22499999403953552
aF2.22499942779541
aF0.05000000074505806
aa(lp301
F0.0
aF-0.22499999403953552
aF2.22499942779541
aF0.05000000074505806
aa(lp302
F0.0
aF-0.22499999403953552
aF2.22499942779541
aF0.05000000074505806
aa(lp303
F0.0
aF-0.22499999403953552
aF2.22499942779541
aF0.05000000074505806
aa(lp304
F0.0
aF-0.22499999403953552
aF2.22499942779541
aF0.05000000074505806
aa(lp305
F0.0
aF-0.22499999403953552
aF2.22499942779541
aF0.05000000074505806
aa(lp306
F0.0
aF-0.22499999403953552
aF2.22499942779541
aF0.05000000074505806
aa(lp307
F0.0
aF-0.22499999403953552
aF2.22499942779541
aF0.05000000074505806
aa(lp308
F0.0
aF-0.22499999403953552
aF2.22499942779541
aF0.05000000074505806
aa(lp309
F0.0
aF-0.22499999403953552
aF2.22499942779541
aF0.05000000074505806
aa(lp310
F0.0
aF-0.22499999403953552
aF2.22499942779541
aF0.05000000074505806
aa(lp311
F0.0
aF-0.22499999403953552
aF2.22499942779541
aF0.05000000074505806
aa(lp312
F0.0
aF-0.22499999403953552
aF2.22499942779541
aF0.05000000074505806
aa(lp313
F0.0
aF-0.22499999403953552
aF2.22499942779541
aF0.05000000074505806
aa(lp314
F0.0
aF-0.22499999403953552
aF2.22499942779541
aF0.05000000074505806
aa(lp315
F0.0
aF-0.22499999403953552
aF2.22499942779541
aF0.05000000074505806
aa(lp316
F0.0
aF-0.22499999403953552
aF2.22499942779541
aF0.05000000074505806
aa(lp317
F0.0
aF-0.22499999403953552
aF2.22499942779541
aF0.05000000074505806
aa(lp318
F0.0
aF-0.22499999403953552
aF2.22499942779541
aF0.05000000074505806
aa(lp319
F0.0
aF-0.22499999403953552
aF2.22499942779541
aF0.05000000074505806
aa(lp320
F0.0
aF-0.22499999403953552
aF2.22499942779541
aF0.05000000074505806
aa(lp321
F0.0
aF-0.22499999403953552
aF2.22499942779541
aF0.05000000074505806
aa(lp322
F0.0
aF-0.22499999403953552
aF2.22499942779541
aF0.05000000074505806
aa(lp323
F0.0
aF-0.22499999403953552
aF2.22499942779541
aF0.05000000074505806
aa(lp324
F0.04999999701976776
aF-0.25
aF2.22499942779541
aF0.05000000074505806
aa(lp325
F0.04999999701976776
aF-0.2750000059604645
aF2.22499942779541
aF0.05000000074505806
aa(lp326
F0.04999999701976776
aF-0.2750000059604645
aF2.22499942779541
aF0.05000000074505806
aa(lp327
F0.09999999403953552
aF-0.2750000059604645
aF2.22499942779541
aF0.05000000074505806
aa(lp328
F0.14999999105930328
aF-0.32499998807907104
aF2.22499942779541
aF0.05000000074505806
aa(lp329
F0.14999999105930328
aF-0.32499998807907104
aF2.22499942779541
aF0.05000000074505806
aa(lp330
F0.14999999105930328
aF-0.32499998807907104
aF2.22499942779541
aF0.05000000074505806
aa(lp331
F0.22499999403953552
aF-0.3499999940395355
aF2.22499942779541
aF0.05000000074505806
aa(lp332
F0.22499999403953552
aF-0.3499999940395355
aF2.22499942779541
aF0.05000000074505806
aa(lp333
F0.25
aF-0.375
aF2.22499942779541
aF0.05000000074505806
aa(lp334
F0.32499998807907104
aF-0.42500001192092896
aF2.22499942779541
aF0.05000000074505806
aa(lp335
F0.32499998807907104
aF-0.42500001192092896
aF2.22499942779541
aF0.05000000074505806
aa(lp336
F0.32499998807907104
aF-0.42500001192092896
aF2.22499942779541
aF0.05000000074505806
aa(lp337
F0.3999999761581421
aF-0.45000001788139343
aF2.22499942779541
aF0.05000000074505806
aa(lp338
F0.3999999761581421
aF-0.45000001788139343
aF2.22499942779541
aF0.05000000074505806
aa(lp339
F0.44999998807907104
aF-0.4750000238418579
aF2.22499942779541
aF0.05000000074505806
aa(lp340
F0.5
aF-0.5250000357627869
aF2.22499942779541
aF0.05000000074505806
aa(lp341
F0.5
aF-0.550000011920929
aF2.22499942779541
aF0.05000000074505806
aa(lp342
F0.5
aF-0.550000011920929
aF2.22499942779541
aF0.05000000074505806
aa(lp343
F0.550000011920929
aF-0.574999988079071
aF2.22499942779541
aF0.05000000074505806
aa(lp344
F0.6000000238418579
aF-0.625
aF2.22499942779541
aF0.05000000074505806
aa(lp345
F0.6000000238418579
aF-0.625
aF2.22499942779541
aF0.05000000074505806
aa(lp346
F0.625
aF-0.6499999761581421
aF2.22499942779541
aF0.05000000074505806
aa(lp347
F0.625
aF-0.6499999761581421
aF2.22499942779541
aF0.05000000074505806
aa(lp348
F0.6499999761581421
aF-0.7249999642372131
aF2.22499942779541
aF0.05000000074505806
aa(lp349
F0.6499999761581421
aF-0.7249999642372131
aF2.22499942779541
aF0.05000000074505806
aa(lp350
F0.9999999403953552
aF-0.7249999642372131
aF2.22499942779541
aF0.05000000074505806
aa(lp351
F1.0499999523162842
aF-0.7249999642372131
aF2.22499942779541
aF0.05000000074505806
aa(lp352
F1.0499999523162842
aF-0.7249999642372131
aF2.22499942779541
aF0.05000000074505806
aa(lp353
F1.0499999523162842
aF-0.7249999642372131
aF2.22499942779541
aF0.05000000074505806
aa(lp354
F1.0499999523162842
aF-0.7249999642372131
aF2.22499942779541
aF0.05000000074505806
aa(lp355
F1.125
aF-0.7249999642372131
aF2.22499942779541
aF0.05000000074505806
aa(lp356
F1.2000000476837158
aF-0.7249999642372131
aF2.22499942779541
aF0.05000000074505806
aa(lp357
F1.2000000476837158
aF-0.7249999642372131
aF2.22499942779541
aF0.05000000074505806
aa(lp358
F1.225000023841858
aF-0.7249999642372131
aF2.22499942779541
aF0.05000000074505806
aa(lp359
F1.25
aF-0.7249999642372131
aF2.22499942779541
aF0.05000000074505806
aa(lp360
F1.25
aF-0.7249999642372131
aF2.22499942779541
aF0.05000000074505806
aa(lp361
F1.350000023841858
aF-0.7499999403953552
aF2.22499942779541
aF0.05000000074505806
aa(lp362
F1.350000023841858
aF-0.7499999403953552
aF2.22499942779541
aF0.05000000074505806
aa(lp363
F1.4500000476837158
aF-0.7749999165534973
aF2.22499942779541
aF0.05000000074505806
aa(lp364
F1.5250000953674316
aF-0.8249999284744263
aF2.22499942779541
aF0.05000000074505806
aa(lp365
F1.5250000953674316
aF-0.8249999284744263
aF2.22499942779541
aF0.05000000074505806
aa(lp366
F1.5500000715255737
aF-0.8249999284744263
aF2.22499942779541
aF0.05000000074505806
aa(lp367
F1.5500000715255737
aF-0.8249999284744263
aF2.22499942779541
aF0.05000000074505806
aa(lp368
F1.6500000953674316
aF-0.8499999046325684
aF2.22499942779541
aF0.05000000074505806
aa(lp369
F1.6500000953674316
aF-0.8499999046325684
aF2.22499942779541
aF0.05000000074505806
aa(lp370
F1.7500001192092896
aF-0.8499999046325684
aF2.22499942779541
aF0.05000000074505806
aa(lp371
F2.0
aF-0.8749998807907104
aF2.22499942779541
aF0.05000000074505806
aa(lp372
F2.125
aF-0.8749998807907104
aF2.22499942779541
aF0.05000000074505806
aa(lp373
F2.125
aF-0.8749998807907104
aF2.22499942779541
aF0.05000000074505806
aa(lp374
F2.200000047683716
aF-0.8749998807907104
aF2.22499942779541
aF0.05000000074505806
aa(lp375
F2.2250001430511475
aF-0.8749998807907104
aF2.22499942779541
aF0.05000000074505806
aa(lp376
F2.3000001907348633
aF-0.8749998807907104
aF2.22499942779541
aF0.05000000074505806
aa(lp377
F2.3500001430511475
aF-0.8749998807907104
aF2.22499942779541
aF0.05000000074505806
aa(lp378
F2.3500001430511475
aF-0.8749998807907104
aF2.22499942779541
aF0.05000000074505806
aa(lp379
F2.4250001907348633
aF-0.9249998927116394
aF2.22499942779541
aF0.05000000074505806
aa(lp380
F2.500000238418579
aF-0.9249998927116394
aF2.22499942779541
aF0.05000000074505806
aa(lp381
F2.500000238418579
aF-0.9249998927116394
aF2.22499942779541
aF0.05000000074505806
aa(lp382
F2.6000001430511475
aF-0.9499998688697815
aF2.22499942779541
aF0.05000000074505806
aa(lp383
F2.625000238418579
aF-0.9499998688697815
aF2.22499942779541
aF0.05000000074505806
aa(lp384
F2.625000238418579
aF-0.9499998688697815
aF2.22499942779541
aF0.05000000074505806
aa(lp385
F2.9000000953674316
aF-1.0249998569488525
aF2.22499942779541
aF0.05000000074505806
aa(lp386
F3.1000001430511475
aF-1.0249998569488525
aF2.22499942779541
aF0.05000000074505806
aa(lp387
F3.125000238418579
aF-1.0499998331069946
aF2.22499942779541
aF0.05000000074505806
aa(lp388
F3.200000286102295
aF-1.0749998092651367
aF2.22499942779541
aF0.05000000074505806
aa(lp389
F3.200000286102295
aF-1.0749998092651367
aF2.22499942779541
aF0.05000000074505806
aa(lp390
F3.250000238418579
aF-1.124999761581421
aF2.22499942779541
aF0.05000000074505806
aa(lp391
F3.3000001907348633
aF-1.124999761581421
aF2.22499942779541
aF0.05000000074505806
aa(lp392
F3.3000001907348633
aF-1.124999761581421
aF2.22499942779541
aF0.05000000074505806
aa(lp393
F3.4000000953674316
aF-1.149999737739563
aF2.22499942779541
aF0.05000000074505806
aa(lp394
F3.4000000953674316
aF-1.149999737739563
aF2.22499942779541
aF0.05000000074505806
aa(lp395
F3.5
aF-1.2249997854232788
aF2.22499942779541
aF0.05000000074505806
aa(lp396
F3.5
aF-1.2249997854232788
aF2.22499942779541
aF0.05000000074505806
aa(lp397
F3.5250000953674316
aF-1.249999761581421
aF2.22499942779541
aF0.05000000074505806
aa(lp398
F3.5250000953674316
aF-1.249999761581421
aF2.22499942779541
aF0.05000000074505806
aa(lp399
F3.625
aF-1.3249998092651367
aF2.22499942779541
aF0.05000000074505806
aa(lp400
F3.625
aF-1.3249998092651367
aF2.22499942779541
aF0.05000000074505806
aa(lp401
F3.6500000953674316
aF-1.374999761581421
aF2.22499942779541
aF0.05000000074505806
aa(lp402
F3.6500000953674316
aF-1.424999713897705
aF2.22499942779541
aF0.05000000074505806
aa(lp403
F3.6500000953674316
aF-1.424999713897705
aF2.22499942779541
aF0.05000000074505806
aa(lp404
F3.6500000953674316
aF-1.424999713897705
aF2.22499942779541
aF0.05000000074505806
aa(lp405
F3.6500000953674316
aF-1.424999713897705
aF2.22499942779541
aF0.05000000074505806
aa(lp406
F3.7250001430511475
aF-1.5749996900558472
aF2.22499942779541
aF0.05000000074505806
aa(lp407
F3.750000238418579
aF-1.6249996423721313
aF2.22499942779541
aF0.05000000074505806
aa(lp408
F3.750000238418579
aF-1.6249996423721313
aF2.22499942779541
aF0.05000000074505806
aa(lp409
F3.8000001907348633
aF-1.6749995946884155
aF2.22499942779541
aF0.05000000074505806
aa(lp410
F3.825000286102295
aF-1.7249995470046997
aF2.22499942779541
aF0.05000000074505806
aa(lp411
F3.825000286102295
aF-1.7249995470046997
aF2.22499942779541
aF0.05000000074505806
aa(lp412
F3.825000286102295
aF-1.7499995231628418
aF2.22499942779541
aF0.05000000074505806
aa(lp413
F3.825000286102295
aF-1.7749994993209839
aF2.22499942779541
aF0.05000000074505806
aa(lp414
F3.825000286102295
aF-1.7749994993209839
aF2.22499942779541
aF0.05000000074505806
aa(lp415
F3.9000003337860107
aF-1.824999451637268
aF2.22499942779541
aF0.05000000074505806
aa(lp416
F3.9000003337860107
aF-1.824999451637268
aF2.22499942779541
aF0.05000000074505806
aa(lp417
F3.9000003337860107
aF-1.824999451637268
aF2.22499942779541
aF0.05000000074505806
aa(lp418
F3.9250004291534424
aF-1.949999451637268
aF2.22499942779541
aF0.05000000074505806
aa(lp419
F4.050000190734863
aF-1.9749994277954102
aF2.22499942779541
aF0.05000000074505806
aa(lp420
F4.050000190734863
aF-1.9749994277954102
aF2.22499942779541
aF0.05000000074505806
aa(lp421
F4.225000381469727
aF-1.9749994277954102
aF2.22499942779541
aF0.05000000074505806
aa(lp422
F4.225000381469727
aF-2.0249993801116943
aF2.22499942779541
aF0.05000000074505806
aa(lp423
F4.250000476837158
aF-2.0749993324279785
aF2.22499942779541
aF0.05000000074505806
aa(lp424
F4.250000476837158
aF-2.0749993324279785
aF2.22499942779541
aF0.05000000074505806
aa(lp425
F4.250000476837158
aF-2.1499993801116943
aF2.22499942779541
aF0.05000000074505806
aa(lp426
F4.250000476837158
aF-2.2499992847442627
aF2.22499942779541
aF0.05000000074505806
aa(lp427
F4.3000006675720215
aF-2.2749993801116943
aF2.22499942779541
aF0.05000000074505806
aa(lp428
F4.3000006675720215
aF-2.2749993801116943
aF2.22499942779541
aF0.05000000074505806
aa(lp429
F4.3000006675720215
aF-2.2749993801116943
aF2.22499942779541
aF0.05000000074505806
aa(lp430
F4.3000006675720215
aF-2.2749993801116943
aF2.22499942779541
aF0.05000000074505806
aa(lp431
F4.3000006675720215
aF-2.4499993324279785
aF2.22499942779541
aF0.05000000074505806
aa(lp432
F4.3000006675720215
aF-2.5249993801116943
aF2.22499942779541
aF0.05000000074505806
aa(lp433
F4.3000006675720215
aF-2.5249993801116943
aF2.22499942779541
aF0.05000000074505806
aa(lp434
F4.3000006675720215
aF-2.549999475479126
aF2.22499942779541
aF0.05000000074505806
aa(lp435
F4.3000006675720215
aF-2.6499993801116943
aF2.22499942779541
aF0.05000000074505806
aa(lp436
F4.3000006675720215
aF-2.6499993801116943
aF2.22499942779541
aF0.05000000074505806
aa(lp437
F4.3000006675720215
aF-2.7499992847442627
aF2.22499942779541
aF0.05000000074505806
aa(lp438
F4.3000006675720215
aF-2.924999237060547
aF2.22499942779541
aF0.05000000074505806
aa(lp439
F4.3000006675720215
aF-2.9499993324279785
aF2.22499942779541
aF0.05000000074505806
aa(lp440
F4.3000006675720215
aF-2.9499993324279785
aF2.22499942779541
aF0.05000000074505806
aa(lp441
F4.3000006675720215
aF-3.0249993801116943
aF2.22499942779541
aF0.05000000074505806
aa(lp442
F4.3000006675720215
aF-3.0249993801116943
aF2.22499942779541
aF0.05000000074505806
aa(lp443
F4.075000762939453
aF-3.22499942779541
aF2.22499942779541
aF0.05000000074505806
aa(lp444
F4.075000762939453
aF-3.22499942779541
aF2.22499942779541
aF0.05000000074505806
aa(lp445
F4.075000762939453
aF-3.249999523162842
aF2.22499942779541
aF0.05000000074505806
aa(lp446
F4.075000762939453
aF-3.2749996185302734
aF2.22499942779541
aF0.05000000074505806
aa(lp447
F4.075000762939453
aF-3.2749996185302734
aF2.22499942779541
aF0.05000000074505806
aa(lp448
F4.075000762939453
aF-3.2749996185302734
aF2.22499942779541
aF0.05000000074505806
aa(lp449
F4.0500006675720215
aF-3.3499996662139893
aF2.22499942779541
aF0.05000000074505806
aa(lp450
F4.0500006675720215
aF-3.3499996662139893
aF2.22499942779541
aF0.05000000074505806
aa(lp451
F4.0500006675720215
aF-3.424999713897705
aF2.22499942779541
aF0.05000000074505806
aa(lp452
F4.0500006675720215
aF-3.424999713897705
aF2.22499942779541
aF0.05000000074505806
aa(lp453
F4.0500006675720215
aF-3.424999713897705
aF2.22499942779541
aF0.05000000074505806
aa(lp454
F4.0500006675720215
aF-3.424999713897705
aF2.22499942779541
aF0.05000000074505806
aa(lp455
F4.200000762939453
aF-3.424999713897705
aF2.22499942779541
aF0.05000000074505806
aa(lp456
F4.200000762939453
aF-3.424999713897705
aF2.22499942779541
aF0.05000000074505806
aa(lp457
F4.200000762939453
aF-3.424999713897705
aF2.22499942779541
aF0.05000000074505806
aa(lp458
F4.200000762939453
aF-3.424999713897705
aF2.22499942779541
aF0.05000000074505806
aa(lp459
F4.200000762939453
aF-3.4499998092651367
aF2.22499942779541
aF0.05000000074505806
aa(lp460
F4.200000762939453
aF-3.4499998092651367
aF2.22499942779541
aF0.05000000074505806
aa(lp461
F4.200000762939453
aF-3.4499998092651367
aF2.22499942779541
aF0.05000000074505806
aa(lp462
F4.200000762939453
aF-3.4499998092651367
aF2.22499942779541
aF0.05000000074505806
aa(lp463
F4.200000762939453
aF-3.4749999046325684
aF2.22499942779541
aF0.05000000074505806
aa(lp464
F4.200000762939453
aF-3.4749999046325684
aF2.22499942779541
aF0.05000000074505806
aa(lp465
F4.200000762939453
aF-3.4749999046325684
aF2.22499942779541
aF0.05000000074505806
aa(lp466
F4.200000762939453
aF-3.5249998569488525
aF2.22499942779541
aF0.05000000074505806
aa(lp467
F4.200000762939453
aF-3.5249998569488525
aF2.22499942779541
aF0.05000000074505806
aa(lp468
F4.200000762939453
aF-3.5249998569488525
aF2.22499942779541
aF0.05000000074505806
aa(lp469
F4.200000762939453
aF-3.549999952316284
aF2.22499942779541
aF0.05000000074505806
aa(lp470
F4.200000762939453
aF-3.575000047683716
aF2.22499942779541
aF0.05000000074505806
aa(lp471
F4.200000762939453
aF-3.625
aF2.22499942779541
aF0.05000000074505806
aa(lp472
F4.200000762939453
aF-3.625
aF2.22499942779541
aF0.05000000074505806
aa(lp473
F4.200000762939453
aF-3.625
aF2.22499942779541
aF0.05000000074505806
aa(lp474
F4.200000762939453
aF-3.625
aF2.22499942779541
aF0.05000000074505806
aa(lp475
F4.200000762939453
aF-3.625
aF2.22499942779541
aF0.05000000074505806
aa(lp476
F4.200000762939453
aF-3.625
aF2.22499942779541
aF0.05000000074505806
aa(lp477
F4.200000762939453
aF-3.625
aF2.22499942779541
aF0.05000000074505806
aa(lp478
F4.200000762939453
aF-3.6500000953674316
aF2.22499942779541
aF0.05000000074505806
aa(lp479
F4.200000762939453
aF-3.6500000953674316
aF2.22499942779541
aF0.05000000074505806
aa(lp480
F4.1750006675720215
aF-3.6500000953674316
aF2.22499942779541
aF0.05000000074505806
aa(lp481
F4.1750006675720215
aF-3.6500000953674316
aF2.22499942779541
aF0.05000000074505806
aa(lp482
F4.1750006675720215
aF-3.6750001907348633
aF2.22499942779541
aF0.05000000074505806
aa(lp483
F4.1750006675720215
aF-3.6750001907348633
aF2.22499942779541
aF0.05000000074505806
aa(lp484
F4.1750006675720215
aF-3.6750001907348633
aF2.22499942779541
aF0.05000000074505806
aa(lp485
F4.1750006675720215
aF-3.6750001907348633
aF2.22499942779541
aF0.05000000074505806
aa(lp486
F4.1750006675720215
aF-3.6750001907348633
aF2.22499942779541
aF0.05000000074505806
aa(lp487
F4.1750006675720215
aF-3.6750001907348633
aF2.22499942779541
aF0.05000000074505806
aa(lp488
F4.1750006675720215
aF-3.6750001907348633
aF2.22499942779541
aF0.05000000074505806
aa(lp489
F4.15000057220459
aF-3.7250001430511475
aF2.22499942779541
aF0.05000000074505806
aa(lp490
F4.0500006675720215
aF-3.7250001430511475
aF2.22499942779541
aF0.05000000074505806
aa(lp491
F3.9750006198883057
aF-3.750000238418579
aF2.22499942779541
aF0.05000000074505806
aa(lp492
F3.9750006198883057
aF-3.750000238418579
aF2.22499942779541
aF0.05000000074505806
aa(lp493
F3.9750006198883057
aF-3.750000238418579
aF2.22499942779541
aF0.05000000074505806
aa(lp494
F3.9750006198883057
aF-3.750000238418579
aF2.22499942779541
aF0.05000000074505806
aa(lp495
F3.9750006198883057
aF-3.750000238418579
aF2.22499942779541
aF0.05000000074505806
aa(lp496
F3.9750006198883057
aF-3.750000238418579
aF2.22499942779541
aF0.05000000074505806
aa(lp497
F3.9750006198883057
aF-3.750000238418579
aF2.22499942779541
aF0.05000000074505806
aa(lp498
F3.9750006198883057
aF-3.750000238418579
aF2.22499942779541
aF0.05000000074505806
aa(lp499
F3.9750006198883057
aF-3.750000238418579
aF2.22499942779541
aF0.05000000074505806
aa(lp500
F3.9750006198883057
aF-3.750000238418579
aF2.22499942779541
aF0.05000000074505806
aa(lp501
F3.9750006198883057
aF-3.750000238418579
aF2.22499942779541
aF0.05000000074505806
aa(lp502
F3.9750006198883057
aF-3.750000238418579
aF2.22499942779541
aF0.05000000074505806
aa(lp503
F3.9750006198883057
aF-3.750000238418579
aF2.22499942779541
aF0.05000000074505806
aa(lp504
F3.9750006198883057
aF-3.750000238418579
aF2.22499942779541
aF0.05000000074505806
aa(lp505
F3.9750006198883057
aF-3.750000238418579
aF2.22499942779541
aF0.05000000074505806
aa(lp506
F3.9750006198883057
aF-3.750000238418579
aF2.22499942779541
aF0.05000000074505806
aa(lp507
F3.9750006198883057
aF-3.750000238418579
aF2.22499942779541
aF0.05000000074505806
aa(lp508
F3.9750006198883057
aF-3.750000238418579
aF2.22499942779541
aF0.05000000074505806
aa(lp509
F3.9750006198883057
aF-3.750000238418579
aF2.22499942779541
aF0.05000000074505806
aa(lp510
F3.9750006198883057
aF-3.750000238418579
aF2.22499942779541
aF0.05000000074505806
aa(lp511
F3.9750006198883057
aF-3.750000238418579
aF2.22499942779541
aF0.05000000074505806
aa(lp512
F3.9750006198883057
aF-3.750000238418579
aF2.22499942779541
aF0.05000000074505806
aa(lp513
F3.9750006198883057
aF-3.750000238418579
aF2.22499942779541
aF0.05000000074505806
aa(lp514
F3.9750006198883057
aF-3.750000238418579
aF2.22499942779541
aF0.05000000074505806
aa(lp515
F3.9750006198883057
aF-3.750000238418579
aF2.22499942779541
aF0.05000000074505806
aa(lp516
F3.9750006198883057
aF-3.750000238418579
aF2.22499942779541
aF0.05000000074505806
aa(lp517
F3.9750006198883057
aF-3.750000238418579
aF2.22499942779541
aF0.05000000074505806
aa(lp518
F3.9750006198883057
aF-3.750000238418579
aF2.22499942779541
aF0.05000000074505806
aa(lp519
F3.9750006198883057
aF-3.750000238418579
aF2.22499942779541
aF0.05000000074505806
aa(lp520
F3.9750006198883057
aF-3.750000238418579
aF2.22499942779541
aF0.05000000074505806
aa(lp521
F3.9750006198883057
aF-3.750000238418579
aF2.22499942779541
aF0.05000000074505806
aa(lp522
F3.9750006198883057
aF-3.750000238418579
aF2.22499942779541
aF0.05000000074505806
aa(lp523
F3.9750006198883057
aF-3.750000238418579
aF2.22499942779541
aF0.05000000074505806
aa(lp524
F3.9750006198883057
aF-3.750000238418579
aF2.22499942779541
aF0.05000000074505806
aa(lp525
F3.9750006198883057
aF-3.750000238418579
aF2.22499942779541
aF0.05000000074505806
aa(lp526
F3.9750006198883057
aF-3.750000238418579
aF2.22499942779541
aF0.05000000074505806
aa(lp527
F3.9750006198883057
aF-3.750000238418579
aF2.22499942779541
aF0.05000000074505806
aa(lp528
F3.9750006198883057
aF-3.750000238418579
aF2.22499942779541
aF0.05000000074505806
aa(lp529
F3.9750006198883057
aF-3.750000238418579
aF2.22499942779541
aF0.05000000074505806
aa(lp530
F3.9750006198883057
aF-3.750000238418579
aF2.22499942779541
aF0.05000000074505806
aa(lp531
F3.9750006198883057
aF-3.750000238418579
aF2.22499942779541
aF0.05000000074505806
aa(lp532
F3.9750006198883057
aF-3.750000238418579
aF2.22499942779541
aF0.05000000074505806
aa(lp533
F3.9750006198883057
aF-3.750000238418579
aF2.22499942779541
aF0.05000000074505806
aa(lp534
F3.9750006198883057
aF-3.750000238418579
aF2.22499942779541
aF0.05000000074505806
aa(lp535
F3.9750006198883057
aF-3.750000238418579
aF2.22499942779541
aF0.05000000074505806
aa(lp536
F3.9750006198883057
aF-3.750000238418579
aF2.22499942779541
aF0.05000000074505806
aa(lp537
F3.9750006198883057
aF-3.750000238418579
aF2.22499942779541
aF0.05000000074505806
aa(lp538
F3.9750006198883057
aF-3.750000238418579
aF2.22499942779541
aF0.05000000074505806
aa(lp539
F3.9750006198883057
aF-3.750000238418579
aF2.22499942779541
aF0.05000000074505806
aa(lp540
F3.9750006198883057
aF-3.750000238418579
aF2.22499942779541
aF0.05000000074505806
aa(lp541
F3.9750006198883057
aF-3.750000238418579
aF2.22499942779541
aF0.05000000074505806
aa(lp542
F3.9750006198883057
aF-3.750000238418579
aF2.22499942779541
aF0.05000000074505806
aa(lp543
F3.9750006198883057
aF-3.750000238418579
aF2.22499942779541
aF0.05000000074505806
aa(lp544
F3.9750006198883057
aF-3.750000238418579
aF2.22499942779541
aF0.05000000074505806
aa(lp545
F3.9750006198883057
aF-3.750000238418579
aF2.22499942779541
aF0.05000000074505806
aa(lp546
F3.9750006198883057
aF-3.750000238418579
aF2.22499942779541
aF0.05000000074505806
aa(lp547
F3.9750006198883057
aF-3.750000238418579
aF2.22499942779541
aF0.05000000074505806
aa(lp548
F3.9750006198883057
aF-3.750000238418579
aF2.22499942779541
aF0.05000000074505806
aa(lp549
F3.9750006198883057
aF-3.750000238418579
aF2.22499942779541
aF0.05000000074505806
aa(lp550
F3.9750006198883057
aF-3.750000238418579
aF2.22499942779541
aF0.05000000074505806
aa(lp551
F3.9750006198883057
aF-3.750000238418579
aF2.22499942779541
aF0.05000000074505806
aa(lp552
F3.9750006198883057
aF-3.750000238418579
aF2.22499942779541
aF0.05000000074505806
aa(lp553
F3.9750006198883057
aF-3.750000238418579
aF2.22499942779541
aF0.05000000074505806
aa(lp554
F3.9750006198883057
aF-3.750000238418579
aF2.22499942779541
aF0.05000000074505806
aa(lp555
F3.9750006198883057
aF-3.750000238418579
aF2.22499942779541
aF0.05000000074505806
aa(lp556
F3.9750006198883057
aF-3.750000238418579
aF2.22499942779541
aF0.05000000074505806
aa(lp557
F3.9750006198883057
aF-3.750000238418579
aF2.22499942779541
aF0.05000000074505806
aa(lp558
F3.9750006198883057
aF-3.750000238418579
aF2.22499942779541
aF0.05000000074505806
aa(lp559
F3.9750006198883057
aF-3.750000238418579
aF2.22499942779541
aF0.05000000074505806
aa(lp560
F3.9750006198883057
aF-3.750000238418579
aF2.22499942779541
aF0.05000000074505806
aa(lp561
F3.9750006198883057
aF-3.750000238418579
aF2.22499942779541
aF0.05000000074505806
aa(lp562
F3.9750006198883057
aF-3.750000238418579
aF2.22499942779541
aF0.05000000074505806
aa(lp563
F3.9750006198883057
aF-3.750000238418579
aF2.22499942779541
aF0.05000000074505806
aa(lp564
F3.9750006198883057
aF-3.750000238418579
aF2.22499942779541
aF0.05000000074505806
aa(lp565
F3.9750006198883057
aF-3.750000238418579
aF2.22499942779541
aF0.05000000074505806
aa(lp566
F3.9750006198883057
aF-3.750000238418579
aF2.22499942779541
aF0.05000000074505806
aa(lp567
F3.9750006198883057
aF-3.750000238418579
aF2.22499942779541
aF0.05000000074505806
aa(lp568
F3.9750006198883057
aF-3.750000238418579
aF2.22499942779541
aF0.05000000074505806
aa(lp569
F3.9750006198883057
aF-3.750000238418579
aF2.22499942779541
aF0.05000000074505806
aa(lp570
F3.9750006198883057
aF-3.750000238418579
aF2.22499942779541
aF0.05000000074505806
aa(lp571
F3.9750006198883057
aF-3.750000238418579
aF2.22499942779541
aF0.05000000074505806
aa(lp572
F3.9750006198883057
aF-3.750000238418579
aF2.22499942779541
aF0.05000000074505806
aa(lp573
F3.9750006198883057
aF-3.750000238418579
aF2.22499942779541
aF0.05000000074505806
aa(lp574
F3.9750006198883057
aF-3.750000238418579
aF2.22499942779541
aF0.05000000074505806
aa(lp575
F3.9750006198883057
aF-3.750000238418579
aF2.22499942779541
aF0.05000000074505806
aa(lp576
F3.9750006198883057
aF-3.750000238418579
aF2.22499942779541
aF0.05000000074505806
aa(lp577
F3.9750006198883057
aF-3.750000238418579
aF2.22499942779541
aF0.05000000074505806
aa(lp578
F3.9750006198883057
aF-3.750000238418579
aF2.22499942779541
aF0.05000000074505806
aa(lp579
F3.9750006198883057
aF-3.750000238418579
aF2.22499942779541
aF0.05000000074505806
aa(lp580
F3.950000524520874
aF-3.750000238418579
aF2.22499942779541
aF0.05000000074505806
aa(lp581
F3.950000524520874
aF-3.750000238418579
aF2.22499942779541
aF0.05000000074505806
aa(lp582
F3.9250004291534424
aF-3.750000238418579
aF2.22499942779541
aF0.05000000074505806
aa(lp583
F3.875000476837158
aF-3.750000238418579
aF2.22499942779541
aF0.05000000074505806
aa(lp584
F3.875000476837158
aF-3.750000238418579
aF2.22499942779541
aF0.05000000074505806
aa(lp585
F3.6750004291534424
aF-3.8000001907348633
aF2.22499942779541
aF0.05000000074505806
aa(lp586
F3.625000476837158
aF-3.8500001430511475
aF2.22499942779541
aF0.05000000074505806
aa(lp587
F3.625000476837158
aF-3.8500001430511475
aF2.22499942779541
aF0.05000000074505806
aa(lp588
F3.625000476837158
aF-3.8500001430511475
aF2.22499942779541
aF0.05000000074505806
aa(lp589
F3.575000524520874
aF-3.8500001430511475
aF2.22499942779541
aF0.05000000074505806
aa(lp590
F3.575000524520874
aF-3.8500001430511475
aF2.22499942779541
aF0.05000000074505806
aa(lp591
F3.5500004291534424
aF-3.8500001430511475
aF2.22499942779541
aF0.05000000074505806
aa(lp592
F3.5500004291534424
aF-3.8500001430511475
aF2.22499942779541
aF0.05000000074505806
aa(lp593
F3.5500004291534424
aF-3.8500001430511475
aF2.22499942779541
aF0.05000000074505806
aa(lp594
F3.5250003337860107
aF-3.875000238418579
aF2.22499942779541
aF0.05000000074505806
aa(lp595
F3.450000286102295
aF-3.875000238418579
aF2.22499942779541
aF0.05000000074505806
aa(lp596
F3.450000286102295
aF-3.875000238418579
aF2.22499942779541
aF0.05000000074505806
aa(lp597
F3.375000238418579
aF-3.875000238418579
aF2.22499942779541
aF0.05000000074505806
aa(lp598
F3.375000238418579
aF-3.875000238418579
aF2.22499942779541
aF0.05000000074505806
aa(lp599
F3.375000238418579
aF-3.875000238418579
aF2.22499942779541
aF0.05000000074505806
aa(lp600
F3.2750003337860107
aF-3.875000238418579
aF2.22499942779541
aF0.05000000074505806
aa(lp601
F3.2250003814697266
aF-3.875000238418579
aF2.22499942779541
aF0.05000000074505806
aa(lp602
F3.2250003814697266
aF-3.875000238418579
aF2.22499942779541
aF0.05000000074505806
aa(lp603
F3.1500003337860107
aF-3.875000238418579
aF2.22499942779541
aF0.05000000074505806
aa(lp604
F3.125000238418579
aF-3.875000238418579
aF2.22499942779541
aF0.05000000074505806
aa(lp605
F3.125000238418579
aF-3.875000238418579
aF2.22499942779541
aF0.05000000074505806
aa(lp606
F3.0250003337860107
aF-3.875000238418579
aF2.22499942779541
aF0.05000000074505806
aa(lp607
F2.950000286102295
aF-3.875000238418579
aF2.22499942779541
aF0.05000000074505806
aa(lp608
F2.950000286102295
aF-3.875000238418579
aF2.22499942779541
aF0.05000000074505806
aa(lp609
F2.9250001907348633
aF-3.875000238418579
aF2.22499942779541
aF0.05000000074505806
aa(lp610
F2.9250001907348633
aF-3.875000238418579
aF2.22499942779541
aF0.05000000074505806
aa(lp611
F2.875000238418579
aF-3.875000238418579
aF2.22499942779541
aF0.05000000074505806
aa(lp612
F2.7250001430511475
aF-3.875000238418579
aF2.22499942779541
aF0.05000000074505806
aa(lp613
F2.7250001430511475
aF-3.875000238418579
aF2.22499942779541
aF0.05000000074505806
aa(lp614
F2.4750001430511475
aF-3.9000003337860107
aF2.22499942779541
aF0.05000000074505806
aa(lp615
F2.450000047683716
aF-3.950000286102295
aF2.22499942779541
aF0.05000000074505806
aa(lp616
F2.450000047683716
aF-3.950000286102295
aF2.22499942779541
aF0.05000000074505806
aa(lp617
F2.3500001430511475
aF-3.9750003814697266
aF2.22499942779541
aF0.05000000074505806
aa(lp618
F2.325000047683716
aF-3.9750003814697266
aF2.22499942779541
aF0.05000000074505806
aa(lp619
F2.325000047683716
aF-3.9750003814697266
aF2.22499942779541
aF0.05000000074505806
aa(lp620
F2.325000047683716
aF-3.9750003814697266
aF2.22499942779541
aF0.05000000074505806
aa(lp621
F2.25
aF-3.9750003814697266
aF2.22499942779541
aF0.05000000074505806
aa(lp622
F2.2249999046325684
aF-4.000000476837158
aF2.22499942779541
aF0.05000000074505806
aa(lp623
F2.2249999046325684
aF-4.000000476837158
aF2.22499942779541
aF0.05000000074505806
aa(lp624
F2.2249999046325684
aF-4.000000476837158
aF2.22499942779541
aF0.05000000074505806
aa(lp625
F2.2249999046325684
aF-4.000000476837158
aF2.22499942779541
aF0.05000000074505806
aa(lp626
F2.174999952316284
aF-4.000000476837158
aF2.22499942779541
aF0.05000000074505806
aa(lp627
F2.125
aF-4.000000476837158
aF2.22499942779541
aF0.05000000074505806
aa(lp628
F2.075000047683716
aF-4.0500006675720215
aF2.22499942779541
aF0.05000000074505806
aa(lp629
F2.075000047683716
aF-4.0500006675720215
aF2.22499942779541
aF0.05000000074505806
aa(lp630
F2.049999952316284
aF-4.0500006675720215
aF2.22499942779541
aF0.05000000074505806
aa(lp631
F2.049999952316284
aF-4.0500006675720215
aF2.22499942779541
aF0.05000000074505806
aa(lp632
F1.9749999046325684
aF-4.0500006675720215
aF2.22499942779541
aF0.05000000074505806
aa(lp633
F1.9749999046325684
aF-4.0500006675720215
aF2.22499942779541
aF0.05000000074505806
aa(lp634
F1.8749998807907104
aF-4.0500006675720215
aF2.22499942779541
aF0.05000000074505806
aa(lp635
F1.8499999046325684
aF-4.0500006675720215
aF2.22499942779541
aF0.05000000074505806
aa(lp636
F1.8249999284744263
aF-4.0500006675720215
aF2.22499942779541
aF0.05000000074505806
aa(lp637
F1.7499998807907104
aF-4.0500006675720215
aF2.22499942779541
aF0.05000000074505806
aa(lp638
F1.7249999046325684
aF-4.0500006675720215
aF2.22499942779541
aF0.05000000074505806
aa(lp639
F1.6749999523162842
aF-4.0500006675720215
aF2.22499942779541
aF0.05000000074505806
aa(lp640
F1.6749999523162842
aF-4.0500006675720215
aF2.22499942779541
aF0.05000000074505806
aa(lp641
F1.3250000476837158
aF-4.075000762939453
aF2.22499942779541
aF0.05000000074505806
aa(lp642
F1.2750000953674316
aF-4.100000858306885
aF2.22499942779541
aF0.05000000074505806
aa(lp643
F1.2750000953674316
aF-4.100000858306885
aF2.22499942779541
aF0.05000000074505806
aa(lp644
F1.1500000953674316
aF-4.100000858306885
aF2.22499942779541
aF0.05000000074505806
aa(lp645
F1.1500000953674316
aF-4.100000858306885
aF2.22499942779541
aF0.05000000074505806
aa(lp646
F1.1250001192092896
aF-4.100000858306885
aF2.22499942779541
aF0.05000000074505806
aa(lp647
F1.0250000953674316
aF-4.100000858306885
aF2.22499942779541
aF0.05000000074505806
aa(lp648
F0.9750000834465027
aF-4.100000858306885
aF2.22499942779541
aF0.05000000074505806
aa(lp649
F0.9750000834465027
aF-4.100000858306885
aF2.22499942779541
aF0.05000000074505806
aa(lp650
F0.9250000715255737
aF-4.100000858306885
aF2.22499942779541
aF0.05000000074505806
aa(lp651
F0.8750000596046448
aF-4.100000858306885
aF2.22499942779541
aF0.05000000074505806
aa(lp652
F0.8750000596046448
aF-4.100000858306885
aF2.22499942779541
aF0.05000000074505806
aa(lp653
F0.8250000476837158
aF-4.100000858306885
aF2.22499942779541
aF0.05000000074505806
aa(lp654
F0.6750000715255737
aF-4.100000858306885
aF2.22499942779541
aF0.05000000074505806
aa(lp655
F0.6750000715255737
aF-4.100000858306885
aF2.22499942779541
aF0.05000000074505806
aa(lp656
F0.6250000596046448
aF-4.100000858306885
aF2.22499942779541
aF0.05000000074505806
aa(lp657
F0.5250000953674316
aF-4.100000858306885
aF2.22499942779541
aF0.05000000074505806
aa(lp658
F0.5250000953674316
aF-4.100000858306885
aF2.22499942779541
aF0.05000000074505806
aa(lp659
F0.22500011324882507
aF-4.100000858306885
aF2.22499942779541
aF0.05000000074505806
aa(lp660
F0.22500011324882507
aF-4.100000858306885
aF2.22499942779541
aF0.05000000074505806
aa(lp661
F0.22500011324882507
aF-4.100000858306885
aF2.22499942779541
aF0.05000000074505806
aa(lp662
F0.07500012218952179
aF-4.100000858306885
aF2.22499942779541
aF0.05000000074505806
aa(lp663
F0.07500012218952179
aF-4.100000858306885
aF2.22499942779541
aF0.05000000074505806
aa(lp664
F0.07500012218952179
aF-4.100000858306885
aF2.22499942779541
aF0.05000000074505806
aa(lp665
F-0.049999870359897614
aF-4.075000762939453
aF2.22499942779541
aF0.05000000074505806
aa(lp666
F-0.12499986588954926
aF-4.075000762939453
aF2.22499942779541
aF0.05000000074505806
aa(lp667
F-0.12499986588954926
aF-4.075000762939453
aF2.22499942779541
aF0.05000000074505806
aa(lp668
F-0.22499985992908478
aF-4.075000762939453
aF2.22499942779541
aF0.05000000074505806
aa(lp669
F-0.24999985098838806
aF-4.075000762939453
aF2.22499942779541
aF0.05000000074505806
aa(lp670
F-0.24999985098838806
aF-4.075000762939453
aF2.22499942779541
aF0.05000000074505806
aa(lp671
F-0.3249998390674591
aF-4.075000762939453
aF2.22499942779541
aF0.05000000074505806
aa(lp672
F-0.3249998390674591
aF-4.075000762939453
aF2.22499942779541
aF0.05000000074505806
aa(lp673
F-0.3249998390674591
aF-4.075000762939453
aF2.22499942779541
aF0.05000000074505806
aa(lp674
F-0.42499983310699463
aF-4.075000762939453
aF2.22499942779541
aF0.05000000074505806
aa(lp675
F-0.4749998450279236
aF-4.075000762939453
aF2.22499942779541
aF0.05000000074505806
aa(lp676
F-0.4749998450279236
aF-4.075000762939453
aF2.22499942779541
aF0.05000000074505806
aa(lp677
F-0.7749998569488525
aF-4.075000762939453
aF2.22499942779541
aF0.05000000074505806
aa(lp678
F-0.8499998450279236
aF-4.075000762939453
aF2.22499942779541
aF0.05000000074505806
aa(lp679
F-0.8499998450279236
aF-4.075000762939453
aF2.22499942779541
aF0.05000000074505806
aa(lp680
F-0.9249998331069946
aF-4.075000762939453
aF2.22499942779541
aF0.05000000074505806
aa(lp681
F-0.9499998092651367
aF-4.075000762939453
aF2.22499942779541
aF0.05000000074505806
aa(lp682
F-1.0249998569488525
aF-4.075000762939453
aF2.22499942779541
aF0.05000000074505806
aa(lp683
F-1.0499998331069946
aF-4.075000762939453
aF2.22499942779541
aF0.05000000074505806
aa(lp684
F-1.0499998331069946
aF-4.075000762939453
aF2.22499942779541
aF0.05000000074505806
aa(lp685
F-1.1499998569488525
aF-4.075000762939453
aF2.22499942779541
aF0.05000000074505806
aa(lp686
F-1.1499998569488525
aF-4.075000762939453
aF2.22499942779541
aF0.05000000074505806
aa(lp687
F-1.1499998569488525
aF-4.075000762939453
aF2.22499942779541
aF0.05000000074505806
aa(lp688
F-1.2499998807907104
aF-4.075000762939453
aF2.22499942779541
aF0.05000000074505806
aa(lp689
F-1.3249999284744263
aF-4.02500057220459
aF2.22499942779541
aF0.05000000074505806
aa(lp690
F-1.3749998807907104
aF-4.02500057220459
aF2.22499942779541
aF0.05000000074505806
aa(lp691
F-1.4249998331069946
aF-4.02500057220459
aF2.22499942779541
aF0.05000000074505806
aa(lp692
F-1.4249998331069946
aF-4.02500057220459
aF2.22499942779541
aF0.05000000074505806
aa(lp693
F-1.4499998092651367
aF-4.000000476837158
aF2.22499942779541
aF0.05000000074505806
aa(lp694
F-1.4499998092651367
aF-4.000000476837158
aF2.22499942779541
aF0.05000000074505806
aa(lp695
F-1.5249998569488525
aF-4.000000476837158
aF2.22499942779541
aF0.05000000074505806
aa(lp696
F-1.5249998569488525
aF-4.000000476837158
aF2.22499942779541
aF0.05000000074505806
aa(lp697
F-1.5749998092651367
aF-4.000000476837158
aF2.22499942779541
aF0.05000000074505806
aa(lp698
F-1.5749998092651367
aF-4.000000476837158
aF2.22499942779541
aF0.05000000074505806
aa(lp699
F-1.7749998569488525
aF-4.000000476837158
aF2.22499942779541
aF0.05000000074505806
aa(lp700
F-1.8499999046325684
aF-4.000000476837158
aF2.22499942779541
aF0.05000000074505806
aa(lp701
F-1.8499999046325684
aF-4.000000476837158
aF2.22499942779541
aF0.05000000074505806
aa(lp702
F-1.8749998807907104
aF-4.000000476837158
aF2.22499942779541
aF0.05000000074505806
aa(lp703
F-1.8749998807907104
aF-4.000000476837158
aF2.22499942779541
aF0.05000000074505806
aa(lp704
F-1.8749998807907104
aF-4.000000476837158
aF2.22499942779541
aF0.05000000074505806
aa(lp705
F-1.9249998331069946
aF-4.000000476837158
aF2.22499942779541
aF0.05000000074505806
aa(lp706
F-1.9499998092651367
aF-4.000000476837158
aF2.22499942779541
aF0.05000000074505806
aa(lp707
F-1.9499998092651367
aF-4.000000476837158
aF2.22499942779541
aF0.05000000074505806
aa(lp708
F-1.9499998092651367
aF-4.000000476837158
aF2.22499942779541
aF0.05000000074505806
aa(lp709
F-1.9749997854232788
aF-4.000000476837158
aF2.22499942779541
aF0.05000000074505806
aa(lp710
F-1.9749997854232788
aF-4.000000476837158
aF2.22499942779541
aF0.05000000074505806
aa(lp711
F-2.0249998569488525
aF-4.000000476837158
aF2.22499942779541
aF0.05000000074505806
aa(lp712
F-2.0249998569488525
aF-4.000000476837158
aF2.22499942779541
aF0.05000000074505806
aa(lp713
F-2.0249998569488525
aF-4.000000476837158
aF2.22499942779541
aF0.05000000074505806
aa(lp714
F-2.049999952316284
aF-4.000000476837158
aF2.22499942779541
aF0.05000000074505806
aa(lp715
F-2.075000047683716
aF-4.000000476837158
aF2.22499942779541
aF0.05000000074505806
aa(lp716
F-2.075000047683716
aF-4.000000476837158
aF2.22499942779541
aF0.05000000074505806
aa(lp717
F-2.125
aF-4.000000476837158
aF2.22499942779541
aF0.05000000074505806
aa(lp718
F-2.125
aF-4.000000476837158
aF2.22499942779541
aF0.05000000074505806
aa(lp719
F-2.125
aF-4.000000476837158
aF2.22499942779541
aF0.05000000074505806
aa(lp720
F-2.1500000953674316
aF-4.000000476837158
aF2.22499942779541
aF0.05000000074505806
aa(lp721
F-2.1500000953674316
aF-4.000000476837158
aF2.22499942779541
aF0.05000000074505806
aa(lp722
F-2.1500000953674316
aF-4.000000476837158
aF2.22499942779541
aF0.05000000074505806
aa(lp723
F-2.1500000953674316
aF-4.000000476837158
aF2.22499942779541
aF0.05000000074505806
aa(lp724
F-2.1500000953674316
aF-4.000000476837158
aF2.22499942779541
aF0.05000000074505806
aa(lp725
F-2.1500000953674316
aF-4.000000476837158
aF2.22499942779541
aF0.05000000074505806
aa(lp726
F-2.1500000953674316
aF-4.000000476837158
aF2.22499942779541
aF0.05000000074505806
aa(lp727
F-2.1500000953674316
aF-4.000000476837158
aF2.22499942779541
aF0.05000000074505806
aa(lp728
F-2.1500000953674316
aF-4.000000476837158
aF2.22499942779541
aF0.05000000074505806
aa(lp729
F-2.1500000953674316
aF-4.000000476837158
aF2.22499942779541
aF0.05000000074505806
aa(lp730
F-2.1500000953674316
aF-4.000000476837158
aF2.22499942779541
aF0.05000000074505806
aa(lp731
F-2.1500000953674316
aF-4.000000476837158
aF2.22499942779541
aF0.05000000074505806
aa(lp732
F-2.1500000953674316
aF-4.000000476837158
aF2.22499942779541
aF0.05000000074505806
aa(lp733
F-2.1500000953674316
aF-4.000000476837158
aF2.22499942779541
aF0.05000000074505806
aa(lp734
F-2.1500000953674316
aF-4.000000476837158
aF2.22499942779541
aF0.05000000074505806
aa(lp735
F-2.1750001907348633
aF-4.000000476837158
aF2.22499942779541
aF0.05000000074505806
aa(lp736
F-2.1750001907348633
aF-4.000000476837158
aF2.22499942779541
aF0.05000000074505806
aa(lp737
F-2.1750001907348633
aF-4.000000476837158
aF2.22499942779541
aF0.05000000074505806
aa(lp738
F-2.1750001907348633
aF-4.000000476837158
aF2.22499942779541
aF0.05000000074505806
aa(lp739
F-2.2250001430511475
aF-4.000000476837158
aF2.22499942779541
aF0.05000000074505806
aa(lp740
F-2.2250001430511475
aF-4.000000476837158
aF2.22499942779541
aF0.05000000074505806
aa(lp741
F-2.2250001430511475
aF-4.000000476837158
aF2.22499942779541
aF0.05000000074505806
aa(lp742
F-2.2250001430511475
aF-4.000000476837158
aF2.22499942779541
aF0.05000000074505806
aa(lp743
F-2.2250001430511475
aF-4.0500006675720215
aF2.22499942779541
aF0.05000000074505806
aa(lp744
F-2.2250001430511475
aF-4.0500006675720215
aF2.22499942779541
aF0.05000000074505806
aa(lp745
F-2.2250001430511475
aF-4.0500006675720215
aF2.22499942779541
aF0.05000000074505806
aa(lp746
F-2.2250001430511475
aF-4.0500006675720215
aF2.22499942779541
aF0.05000000074505806
aa(lp747
F-2.2250001430511475
aF-4.0500006675720215
aF2.22499942779541
aF0.05000000074505806
aa(lp748
F-2.2250001430511475
aF-4.0500006675720215
aF2.22499942779541
aF0.05000000074505806
aa(lp749
F-2.2250001430511475
aF-4.0500006675720215
aF2.22499942779541
aF0.05000000074505806
aa(lp750
F-2.2250001430511475
aF-4.0500006675720215
aF2.22499942779541
aF0.05000000074505806
aa(lp751
F-2.2250001430511475
aF-4.0500006675720215
aF2.22499942779541
aF0.05000000074505806
aa(lp752
F-2.2250001430511475
aF-4.0500006675720215
aF2.22499942779541
aF0.05000000074505806
aa(lp753
F-2.2250001430511475
aF-4.0500006675720215
aF2.22499942779541
aF0.05000000074505806
aa(lp754
F-2.2250001430511475
aF-4.0500006675720215
aF2.22499942779541
aF0.05000000074505806
aa(lp755
F-2.250000238418579
aF-4.0500006675720215
aF2.22499942779541
aF0.05000000074505806
aa(lp756
F-2.250000238418579
aF-4.0500006675720215
aF2.22499942779541
aF0.05000000074505806
aa(lp757
F-2.250000238418579
aF-4.0500006675720215
aF2.22499942779541
aF0.05000000074505806
aa(lp758
F-2.2750003337860107
aF-4.0500006675720215
aF2.22499942779541
aF0.05000000074505806
aa(lp759
F-2.2750003337860107
aF-4.0500006675720215
aF2.22499942779541
aF0.05000000074505806
aa(lp760
F-2.2750003337860107
aF-4.0500006675720215
aF2.22499942779541
aF0.05000000074505806
aa(lp761
F-2.2750003337860107
aF-4.0500006675720215
aF2.22499942779541
aF0.05000000074505806
aa(lp762
F-2.2750003337860107
aF-4.0500006675720215
aF2.22499942779541
aF0.05000000074505806
aa(lp763
F-2.2750003337860107
aF-4.0500006675720215
aF2.22499942779541
aF0.05000000074505806
aa(lp764
F-2.2750003337860107
aF-4.0500006675720215
aF2.22499942779541
aF0.05000000074505806
aa(lp765
F-2.2750003337860107
aF-4.0500006675720215
aF2.22499942779541
aF0.05000000074505806
aa(lp766
F-2.2750003337860107
aF-4.0500006675720215
aF2.22499942779541
aF0.05000000074505806
aa(lp767
F-2.2750003337860107
aF-4.0500006675720215
aF2.22499942779541
aF0.05000000074505806
aa(lp768
F-2.2750003337860107
aF-4.0500006675720215
aF2.22499942779541
aF0.05000000074505806
aa(lp769
F-2.2750003337860107
aF-4.0500006675720215
aF2.22499942779541
aF0.05000000074505806
aa(lp770
F-2.2750003337860107
aF-4.0500006675720215
aF2.22499942779541
aF0.05000000074505806
aa(lp771
F-2.2750003337860107
aF-4.0500006675720215
aF2.22499942779541
aF0.05000000074505806
aa(lp772
F-2.2750003337860107
aF-4.0500006675720215
aF2.22499942779541
aF0.05000000074505806
aa(lp773
F-2.2750003337860107
aF-4.0500006675720215
aF2.22499942779541
aF0.05000000074505806
aa(lp774
F-2.2750003337860107
aF-4.0500006675720215
aF2.22499942779541
aF0.05000000074505806
aa(lp775
F-2.2750003337860107
aF-4.0500006675720215
aF2.22499942779541
aF0.05000000074505806
aa(lp776
F-2.2750003337860107
aF-4.0500006675720215
aF2.22499942779541
aF0.05000000074505806
aa(lp777
F-2.2750003337860107
aF-4.0500006675720215
aF2.22499942779541
aF0.05000000074505806
aa(lp778
F-2.2750003337860107
aF-4.0500006675720215
aF2.22499942779541
aF0.05000000074505806
aa(lp779
F-2.2750003337860107
aF-4.0500006675720215
aF2.22499942779541
aF0.05000000074505806
aa(lp780
F-2.2750003337860107
aF-4.0500006675720215
aF2.22499942779541
aF0.05000000074505806
aa(lp781
F-2.2750003337860107
aF-4.0500006675720215
aF2.22499942779541
aF0.05000000074505806
aa(lp782
F-2.2750003337860107
aF-4.0500006675720215
aF2.22499942779541
aF0.05000000074505806
aa(lp783
F-2.2750003337860107
aF-4.0500006675720215
aF2.22499942779541
aF0.05000000074505806
aa(lp784
F-2.2750003337860107
aF-4.0500006675720215
aF2.22499942779541
aF0.05000000074505806
aa(lp785
F-2.2750003337860107
aF-4.0500006675720215
aF2.22499942779541
aF0.05000000074505806
aa(lp786
F-2.2750003337860107
aF-4.0500006675720215
aF2.22499942779541
aF0.05000000074505806
aa(lp787
F-2.2750003337860107
aF-4.0500006675720215
aF2.22499942779541
aF0.05000000074505806
aa(lp788
F-2.2750003337860107
aF-4.0500006675720215
aF2.22499942779541
aF0.05000000074505806
aa(lp789
F-2.2750003337860107
aF-4.0500006675720215
aF2.22499942779541
aF0.05000000074505806
aa(lp790
F-2.2750003337860107
aF-4.0500006675720215
aF2.22499942779541
aF0.05000000074505806
aa(lp791
F-2.2750003337860107
aF-4.0500006675720215
aF2.22499942779541
aF0.05000000074505806
aa(lp792
F-2.2750003337860107
aF-4.0500006675720215
aF2.22499942779541
aF0.05000000074505806
aa(lp793
F-2.2750003337860107
aF-4.0500006675720215
aF2.22499942779541
aF0.05000000074505806
aa(lp794
F-2.2750003337860107
aF-4.0500006675720215
aF2.22499942779541
aF0.05000000074505806
aa(lp795
F-2.2750003337860107
aF-4.0500006675720215
aF2.22499942779541
aF0.05000000074505806
aa(lp796
F-2.2750003337860107
aF-4.0500006675720215
aF2.22499942779541
aF0.05000000074505806
aa(lp797
F-2.2750003337860107
aF-4.0500006675720215
aF2.22499942779541
aF0.05000000074505806
aa(lp798
F-2.2750003337860107
aF-4.0500006675720215
aF2.22499942779541
aF0.05000000074505806
aa(lp799
F-2.2750003337860107
aF-4.0500006675720215
aF2.22499942779541
aF0.05000000074505806
aa(lp800
F-2.2750003337860107
aF-4.0500006675720215
aF2.22499942779541
aF0.05000000074505806
aa(lp801
F-2.2750003337860107
aF-4.0500006675720215
aF2.22499942779541
aF0.05000000074505806
aa(lp802
F-2.2750003337860107
aF-4.0500006675720215
aF2.22499942779541
aF0.05000000074505806
aa(lp803
F-2.2750003337860107
aF-4.0500006675720215
aF2.22499942779541
aF0.05000000074505806
aa(lp804
F-2.2750003337860107
aF-4.0500006675720215
aF2.22499942779541
aF0.05000000074505806
aa(lp805
F-2.2750003337860107
aF-4.0500006675720215
aF2.22499942779541
aF0.05000000074505806
aa(lp806
F-2.2750003337860107
aF-4.0500006675720215
aF2.22499942779541
aF0.05000000074505806
aa(lp807
F-2.2750003337860107
aF-4.0500006675720215
aF2.22499942779541
aF0.05000000074505806
aa(lp808
F-2.2750003337860107
aF-4.0500006675720215
aF2.22499942779541
aF0.05000000074505806
aa(lp809
F-2.2750003337860107
aF-4.0500006675720215
aF2.22499942779541
aF0.05000000074505806
aa(lp810
F-2.2750003337860107
aF-4.0500006675720215
aF2.22499942779541
aF0.05000000074505806
aa(lp811
F-2.2750003337860107
aF-4.0500006675720215
aF2.22499942779541
aF0.05000000074505806
aa(lp812
F-2.2750003337860107
aF-4.0500006675720215
aF2.22499942779541
aF0.05000000074505806
aa(lp813
F-2.2750003337860107
aF-4.0500006675720215
aF2.22499942779541
aF0.05000000074505806
aa(lp814
F-2.2750003337860107
aF-4.0500006675720215
aF2.22499942779541
aF0.05000000074505806
aa(lp815
F-2.2750003337860107
aF-4.0500006675720215
aF2.22499942779541
aF0.05000000074505806
aa(lp816
F-2.2750003337860107
aF-4.0500006675720215
aF2.22499942779541
aF0.05000000074505806
aa(lp817
F-2.2750003337860107
aF-4.0500006675720215
aF2.22499942779541
aF0.05000000074505806
aa(lp818
F-2.2750003337860107
aF-4.0500006675720215
aF2.22499942779541
aF0.05000000074505806
aa(lp819
F-2.2750003337860107
aF-4.0500006675720215
aF2.22499942779541
aF0.05000000074505806
aa(lp820
F-2.2750003337860107
aF-4.0500006675720215
aF2.22499942779541
aF0.05000000074505806
aa(lp821
F-2.2750003337860107
aF-4.0500006675720215
aF2.22499942779541
aF0.05000000074505806
aa(lp822
F-2.2750003337860107
aF-4.0500006675720215
aF2.22499942779541
aF0.05000000074505806
aa(lp823
F-2.2750003337860107
aF-4.0500006675720215
aF2.22499942779541
aF0.05000000074505806
aa(lp824
F-2.2750003337860107
aF-4.0500006675720215
aF2.22499942779541
aF0.05000000074505806
aa(lp825
F-2.2750003337860107
aF-4.0500006675720215
aF2.22499942779541
aF0.05000000074505806
aa(lp826
F-2.2750003337860107
aF-4.0500006675720215
aF2.22499942779541
aF0.05000000074505806
aa(lp827
F-2.2750003337860107
aF-4.0500006675720215
aF2.22499942779541
aF0.05000000074505806
aa(lp828
F-2.2750003337860107
aF-4.0500006675720215
aF2.22499942779541
aF0.05000000074505806
aa(lp829
F-2.2750003337860107
aF-4.0500006675720215
aF2.22499942779541
aF0.05000000074505806
aa(lp830
F-2.2750003337860107
aF-4.0500006675720215
aF2.22499942779541
aF0.05000000074505806
aa(lp831
F-2.2750003337860107
aF-4.0500006675720215
aF2.22499942779541
aF0.05000000074505806
aa(lp832
F-2.2750003337860107
aF-4.0500006675720215
aF2.22499942779541
aF0.05000000074505806
aa(lp833
F-2.2750003337860107
aF-4.0500006675720215
aF2.22499942779541
aF0.05000000074505806
aa(lp834
F-2.2750003337860107
aF-4.0500006675720215
aF2.22499942779541
aF0.05000000074505806
aa(lp835
F-2.2750003337860107
aF-4.0500006675720215
aF2.22499942779541
aF0.05000000074505806
aa(lp836
F-2.2750003337860107
aF-4.0500006675720215
aF2.22499942779541
aF0.05000000074505806
aa(lp837
F-2.2750003337860107
aF-4.0500006675720215
aF2.22499942779541
aF0.05000000074505806
aa(lp838
F-2.2750003337860107
aF-4.0500006675720215
aF2.22499942779541
aF0.05000000074505806
aa(lp839
F-2.2750003337860107
aF-4.0500006675720215
aF2.22499942779541
aF0.05000000074505806
aa(lp840
F-2.2750003337860107
aF-4.0500006675720215
aF2.22499942779541
aF0.05000000074505806
aa(lp841
F-2.2750003337860107
aF-4.0500006675720215
aF2.22499942779541
aF0.05000000074505806
aa(lp842
F-2.2750003337860107
aF-4.0500006675720215
aF2.22499942779541
aF0.05000000074505806
aa(lp843
F-2.2750003337860107
aF-4.0500006675720215
aF2.22499942779541
aF0.05000000074505806
aa(lp844
F-2.2750003337860107
aF-4.0500006675720215
aF2.22499942779541
aF0.05000000074505806
aa(lp845
F-2.2750003337860107
aF-4.0500006675720215
aF2.22499942779541
aF0.05000000074505806
aa(lp846
F-2.2750003337860107
aF-4.0500006675720215
aF2.22499942779541
aF0.05000000074505806
aa(lp847
F-2.2750003337860107
aF-4.0500006675720215
aF2.22499942779541
aF0.05000000074505806
aa(lp848
F-2.2750003337860107
aF-4.0500006675720215
aF2.22499942779541
aF0.05000000074505806
aa(lp849
F-2.2750003337860107
aF-4.0500006675720215
aF2.22499942779541
aF0.05000000074505806
aa(lp850
F-2.2750003337860107
aF-4.0500006675720215
aF2.22499942779541
aF0.05000000074505806
aa(lp851
F-2.2750003337860107
aF-4.0500006675720215
aF2.22499942779541
aF0.05000000074505806
aa(lp852
F-2.2750003337860107
aF-4.0500006675720215
aF2.22499942779541
aF0.05000000074505806
aa(lp853
F-2.2750003337860107
aF-4.0500006675720215
aF2.22499942779541
aF0.05000000074505806
aa(lp854
F-2.2750003337860107
aF-4.0500006675720215
aF2.22499942779541
aF0.05000000074505806
aa(lp855
F-2.2750003337860107
aF-4.0500006675720215
aF2.22499942779541
aF0.05000000074505806
aa(lp856
F-2.2750003337860107
aF-4.0500006675720215
aF2.22499942779541
aF0.05000000074505806
aa(lp857
F-2.2750003337860107
aF-4.0500006675720215
aF2.22499942779541
aF0.05000000074505806
aa(lp858
F-2.2750003337860107
aF-4.0500006675720215
aF2.22499942779541
aF0.05000000074505806
aa(lp859
F-2.2750003337860107
aF-4.0500006675720215
aF2.22499942779541
aF0.05000000074505806
aa(lp860
F-2.2750003337860107
aF-4.0500006675720215
aF2.22499942779541
aF0.05000000074505806
aa(lp861
F-2.2750003337860107
aF-4.0500006675720215
aF2.22499942779541
aF0.05000000074505806
aa(lp862
F-2.2750003337860107
aF-4.0500006675720215
aF2.22499942779541
aF0.05000000074505806
aa(lp863
F-2.2750003337860107
aF-4.0500006675720215
aF2.22499942779541
aF0.05000000074505806
aa(lp864
F-2.2750003337860107
aF-4.0500006675720215
aF2.22499942779541
aF0.05000000074505806
aa(lp865
F-2.2750003337860107
aF-4.0500006675720215
aF2.22499942779541
aF0.05000000074505806
aa(lp866
F-2.2750003337860107
aF-4.0500006675720215
aF2.22499942779541
aF0.05000000074505806
aa(lp867
F-2.2750003337860107
aF-4.0500006675720215
aF2.22499942779541
aF0.05000000074505806
aa(lp868
F-2.2750003337860107
aF-4.0500006675720215
aF2.22499942779541
aF0.05000000074505806
aa(lp869
F-2.2750003337860107
aF-4.0500006675720215
aF2.22499942779541
aF0.05000000074505806
aa(lp870
F-2.2750003337860107
aF-4.0500006675720215
aF2.22499942779541
aF0.05000000074505806
aa(lp871
F-2.2750003337860107
aF-4.0500006675720215
aF2.22499942779541
aF0.05000000074505806
aa(lp872
F-2.2750003337860107
aF-4.0500006675720215
aF2.22499942779541
aF0.05000000074505806
aa(lp873
F-2.2750003337860107
aF-4.0500006675720215
aF2.22499942779541
aF0.05000000074505806
aa(lp874
F-2.2750003337860107
aF-4.0500006675720215
aF2.22499942779541
aF0.05000000074505806
aa(lp875
F-2.2750003337860107
aF-4.0500006675720215
aF2.22499942779541
aF0.05000000074505806
aa(lp876
F-2.2750003337860107
aF-4.0500006675720215
aF2.22499942779541
aF0.05000000074505806
aa(lp877
F-2.2750003337860107
aF-4.0500006675720215
aF2.22499942779541
aF0.05000000074505806
aa(lp878
F-2.2750003337860107
aF-4.0500006675720215
aF2.22499942779541
aF0.05000000074505806
aa(lp879
F-2.2750003337860107
aF-4.0500006675720215
aF2.22499942779541
aF0.05000000074505806
aa(lp880
F-2.2750003337860107
aF-4.0500006675720215
aF2.22499942779541
aF0.05000000074505806
aa(lp881
F-2.2750003337860107
aF-4.0500006675720215
aF2.22499942779541
aF0.05000000074505806
aa(lp882
F-2.2750003337860107
aF-4.0500006675720215
aF2.22499942779541
aF0.05000000074505806
aa(lp883
F-2.2750003337860107
aF-4.0500006675720215
aF2.22499942779541
aF0.05000000074505806
aa(lp884
F-2.2750003337860107
aF-4.0500006675720215
aF2.22499942779541
aF0.05000000074505806
aa(lp885
F-2.2750003337860107
aF-4.0500006675720215
aF2.22499942779541
aF0.05000000074505806
aa(lp886
F-2.2750003337860107
aF-4.0500006675720215
aF2.22499942779541
aF0.05000000074505806
aa(lp887
F-2.2750003337860107
aF-4.0500006675720215
aF2.22499942779541
aF0.05000000074505806
aa(lp888
F-2.2750003337860107
aF-4.0500006675720215
aF2.22499942779541
aF0.05000000074505806
aa(lp889
F-2.2750003337860107
aF-4.0500006675720215
aF2.22499942779541
aF0.05000000074505806
aa(lp890
F-2.2750003337860107
aF-4.0500006675720215
aF2.22499942779541
aF0.05000000074505806
aa(lp891
F-2.2750003337860107
aF-4.0500006675720215
aF2.22499942779541
aF0.05000000074505806
aa(lp892
F-2.2750003337860107
aF-4.0500006675720215
aF2.22499942779541
aF0.05000000074505806
aa(lp893
F-2.2750003337860107
aF-4.0500006675720215
aF2.22499942779541
aF0.05000000074505806
aa(lp894
F-2.2750003337860107
aF-4.0500006675720215
aF2.22499942779541
aF0.05000000074505806
aa(lp895
F-2.2750003337860107
aF-4.0500006675720215
aF2.22499942779541
aF0.05000000074505806
aa(lp896
F-2.2750003337860107
aF-4.0500006675720215
aF2.22499942779541
aF0.05000000074505806
aa(lp897
F-2.2750003337860107
aF-4.0500006675720215
aF2.22499942779541
aF0.05000000074505806
aa(lp898
F-2.2750003337860107
aF-4.0500006675720215
aF2.22499942779541
aF0.05000000074505806
aa(lp899
F-2.2750003337860107
aF-4.0500006675720215
aF2.22499942779541
aF0.05000000074505806
aa(lp900
F-2.2750003337860107
aF-4.0500006675720215
aF2.22499942779541
aF0.05000000074505806
aa(lp901
F-2.2750003337860107
aF-4.0500006675720215
aF2.22499942779541
aF0.05000000074505806
aa(lp902
F-2.2750003337860107
aF-4.0500006675720215
aF2.22499942779541
aF0.05000000074505806
aa(lp903
F-2.2750003337860107
aF-4.0500006675720215
aF2.22499942779541
aF0.05000000074505806
aa(lp904
F-2.2750003337860107
aF-4.0500006675720215
aF2.22499942779541
aF0.05000000074505806
aa(lp905
F-2.2750003337860107
aF-4.0500006675720215
aF2.22499942779541
aF0.05000000074505806
aa(lp906
F-2.2750003337860107
aF-4.0500006675720215
aF2.22499942779541
aF0.05000000074505806
aa(lp907
F-2.2750003337860107
aF-4.0500006675720215
aF2.22499942779541
aF0.05000000074505806
aa(lp908
F-2.2750003337860107
aF-4.0500006675720215
aF2.22499942779541
aF0.05000000074505806
aa(lp909
F-2.2750003337860107
aF-4.0500006675720215
aF2.22499942779541
aF0.05000000074505806
aa(lp910
F-2.2750003337860107
aF-4.0500006675720215
aF2.22499942779541
aF0.05000000074505806
aa(lp911
F-2.2750003337860107
aF-4.0500006675720215
aF2.22499942779541
aF0.05000000074505806
aa(lp912
F-2.2750003337860107
aF-4.0500006675720215
aF2.22499942779541
aF0.05000000074505806
aa(lp913
F-2.2750003337860107
aF-4.0500006675720215
aF2.22499942779541
aF0.05000000074505806
aa(lp914
F-2.2750003337860107
aF-4.0500006675720215
aF2.22499942779541
aF0.05000000074505806
aa(lp915
F-2.2750003337860107
aF-4.0500006675720215
aF2.22499942779541
aF0.05000000074505806
aa(lp916
F-2.2750003337860107
aF-4.0500006675720215
aF2.22499942779541
aF0.05000000074505806
aa(lp917
F-2.2750003337860107
aF-4.0500006675720215
aF2.22499942779541
aF0.05000000074505806
aa(lp918
F-2.2750003337860107
aF-4.0500006675720215
aF2.22499942779541
aF0.05000000074505806
aa(lp919
F-2.2750003337860107
aF-4.0500006675720215
aF2.22499942779541
aF0.05000000074505806
aa(lp920
F-2.2750003337860107
aF-4.0500006675720215
aF2.22499942779541
aF0.05000000074505806
aa(lp921
F-2.2750003337860107
aF-4.0500006675720215
aF2.22499942779541
aF0.05000000074505806
aa(lp922
F-2.2750003337860107
aF-4.0500006675720215
aF2.22499942779541
aF0.05000000074505806
aa(lp923
F-2.2750003337860107
aF-4.0500006675720215
aF2.22499942779541
aF0.05000000074505806
aa(lp924
F-2.2750003337860107
aF-4.0500006675720215
aF2.22499942779541
aF0.05000000074505806
aa(lp925
F-2.2750003337860107
aF-4.0500006675720215
aF2.22499942779541
aF0.05000000074505806
aa(lp926
F-2.2750003337860107
aF-4.0500006675720215
aF2.22499942779541
aF0.05000000074505806
aa(lp927
F-2.2750003337860107
aF-4.0500006675720215
aF2.22499942779541
aF0.05000000074505806
aa(lp928
F-2.2750003337860107
aF-4.0500006675720215
aF2.22499942779541
aF0.05000000074505806
aa(lp929
F-2.2750003337860107
aF-4.0500006675720215
aF2.22499942779541
aF0.05000000074505806
aa(lp930
F-2.2750003337860107
aF-4.0500006675720215
aF2.22499942779541
aF0.05000000074505806
aa(lp931
F-2.2750003337860107
aF-4.0500006675720215
aF2.22499942779541
aF0.05000000074505806
aa(lp932
F-2.2750003337860107
aF-4.0500006675720215
aF2.22499942779541
aF0.05000000074505806
aa(lp933
F-2.2750003337860107
aF-4.0500006675720215
aF2.22499942779541
aF0.05000000074505806
aa(lp934
F-2.2750003337860107
aF-4.0500006675720215
aF2.22499942779541
aF0.05000000074505806
aa(lp935
F-2.2750003337860107
aF-4.0500006675720215
aF2.22499942779541
aF0.05000000074505806
aa(lp936
F-2.2750003337860107
aF-4.0500006675720215
aF2.22499942779541
aF0.05000000074505806
aa(lp937
F-2.2750003337860107
aF-4.0500006675720215
aF2.22499942779541
aF0.05000000074505806
aa(lp938
F-2.2750003337860107
aF-4.0500006675720215
aF2.22499942779541
aF0.05000000074505806
aa(lp939
F-2.2750003337860107
aF-4.0500006675720215
aF2.22499942779541
aF0.05000000074505806
aa(lp940
F-2.2750003337860107
aF-4.0500006675720215
aF2.22499942779541
aF0.05000000074505806
aa(lp941
F-2.2750003337860107
aF-4.0500006675720215
aF2.22499942779541
aF0.05000000074505806
aa(lp942
F-2.2750003337860107
aF-4.0500006675720215
aF2.22499942779541
aF0.05000000074505806
aa(lp943
F-2.2750003337860107
aF-4.0500006675720215
aF2.22499942779541
aF0.05000000074505806
aa(lp944
F-2.2750003337860107
aF-4.0500006675720215
aF2.22499942779541
aF0.05000000074505806
aa(lp945
F-2.2750003337860107
aF-4.0500006675720215
aF2.22499942779541
aF0.05000000074505806
aa(lp946
F-2.2750003337860107
aF-4.0500006675720215
aF2.22499942779541
aF0.05000000074505806
aa(lp947
F-2.2750003337860107
aF-4.0500006675720215
aF2.22499942779541
aF0.05000000074505806
aa(lp948
F-2.2750003337860107
aF-4.0500006675720215
aF2.22499942779541
aF0.05000000074505806
aa(lp949
F-2.2750003337860107
aF-4.0500006675720215
aF2.22499942779541
aF0.05000000074505806
aa(lp950
F-2.2750003337860107
aF-4.0500006675720215
aF2.22499942779541
aF0.05000000074505806
aa(lp951
F-2.2750003337860107
aF-4.0500006675720215
aF2.22499942779541
aF0.05000000074505806
aa(lp952
F-2.2750003337860107
aF-4.0500006675720215
aF2.22499942779541
aF0.05000000074505806
aa(lp953
F-2.2750003337860107
aF-4.0500006675720215
aF2.22499942779541
aF0.05000000074505806
aa(lp954
F-2.2750003337860107
aF-4.0500006675720215
aF2.22499942779541
aF0.05000000074505806
aa(lp955
F-2.2750003337860107
aF-4.0500006675720215
aF2.22499942779541
aF0.05000000074505806
aa(lp956
F-2.2750003337860107
aF-4.0500006675720215
aF2.22499942779541
aF0.05000000074505806
aa(lp957
F-2.2750003337860107
aF-4.0500006675720215
aF2.22499942779541
aF0.05000000074505806
aa(lp958
F-2.2750003337860107
aF-4.0500006675720215
aF2.22499942779541
aF0.05000000074505806
aa(lp959
F-2.2750003337860107
aF-4.0500006675720215
aF2.22499942779541
aF0.05000000074505806
aa(lp960
F-2.2750003337860107
aF-4.0500006675720215
aF2.22499942779541
aF0.05000000074505806
aa(lp961
F-2.2750003337860107
aF-4.0500006675720215
aF2.22499942779541
aF0.05000000074505806
aa(lp962
F-2.2750003337860107
aF-4.0500006675720215
aF2.22499942779541
aF0.05000000074505806
aa(lp963
F-2.2750003337860107
aF-4.0500006675720215
aF2.22499942779541
aF0.05000000074505806
aa(lp964
F-2.2750003337860107
aF-4.0500006675720215
aF2.22499942779541
aF0.05000000074505806
aa(lp965
F-2.2750003337860107
aF-4.0500006675720215
aF2.22499942779541
aF0.05000000074505806
aa(lp966
F-2.2750003337860107
aF-4.0500006675720215
aF2.22499942779541
aF0.05000000074505806
aa(lp967
F-2.2750003337860107
aF-4.0500006675720215
aF2.22499942779541
aF0.05000000074505806
aa(lp968
F-2.2750003337860107
aF-4.0500006675720215
aF2.22499942779541
aF0.05000000074505806
aa(lp969
F-2.2750003337860107
aF-4.0500006675720215
aF2.22499942779541
aF0.05000000074505806
aa(lp970
F-2.2750003337860107
aF-4.0500006675720215
aF2.22499942779541
aF0.05000000074505806
aa(lp971
F-2.2750003337860107
aF-4.0500006675720215
aF2.22499942779541
aF0.05000000074505806
aa(lp972
F-2.2750003337860107
aF-4.0500006675720215
aF2.22499942779541
aF0.05000000074505806
aa(lp973
F-2.2750003337860107
aF-4.0500006675720215
aF2.22499942779541
aF0.05000000074505806
aa(lp974
F-2.2750003337860107
aF-4.0500006675720215
aF2.22499942779541
aF0.05000000074505806
aa(lp975
F-2.2750003337860107
aF-4.0500006675720215
aF2.22499942779541
aF0.05000000074505806
aa(lp976
F-2.2750003337860107
aF-4.0500006675720215
aF2.22499942779541
aF0.05000000074505806
aa(lp977
F-2.2750003337860107
aF-4.0500006675720215
aF2.22499942779541
aF0.05000000074505806
aa(lp978
F-2.2750003337860107
aF-4.0500006675720215
aF2.22499942779541
aF0.05000000074505806
aa(lp979
F-2.2750003337860107
aF-4.0500006675720215
aF2.22499942779541
aF0.05000000074505806
aa(lp980
F-2.2750003337860107
aF-4.0500006675720215
aF2.22499942779541
aF0.05000000074505806
aa(lp981
F-2.2750003337860107
aF-4.0500006675720215
aF2.22499942779541
aF0.05000000074505806
aa(lp982
F-2.2750003337860107
aF-4.0500006675720215
aF2.22499942779541
aF0.05000000074505806
aa(lp983
F-2.2750003337860107
aF-4.0500006675720215
aF2.22499942779541
aF0.05000000074505806
aa(lp984
F-2.2750003337860107
aF-4.0500006675720215
aF2.22499942779541
aF0.05000000074505806
aa(lp985
F-2.2750003337860107
aF-4.0500006675720215
aF2.22499942779541
aF0.05000000074505806
aa(lp986
F-2.2750003337860107
aF-4.0500006675720215
aF2.22499942779541
aF0.05000000074505806
aa(lp987
F-2.2750003337860107
aF-4.0500006675720215
aF2.22499942779541
aF0.05000000074505806
aa(lp988
F-2.2750003337860107
aF-4.0500006675720215
aF2.22499942779541
aF0.05000000074505806
aa(lp989
F-2.2750003337860107
aF-4.0500006675720215
aF2.22499942779541
aF0.05000000074505806
aa(lp990
F-2.2750003337860107
aF-4.0500006675720215
aF2.22499942779541
aF0.05000000074505806
aa(lp991
F-2.2750003337860107
aF-4.0500006675720215
aF2.174999475479126
aF0.05000000074505806
aa(lp992
F-2.2750003337860107
aF-4.0500006675720215
aF2.1499993801116943
aF0.05000000074505806
aa(lp993
F-2.2750003337860107
aF-4.0500006675720215
aF2.09999942779541
aF0.05000000074505806
aa(lp994
F-2.2750003337860107
aF-4.0500006675720215
aF2.0249993801116943
aF0.05000000074505806
aa(lp995
F-2.2750003337860107
aF-4.0500006675720215
aF2.0249993801116943
aF0.05000000074505806
aa(lp996
F-2.2750003337860107
aF-4.0500006675720215
aF1.9749994277954102
aF0.05000000074505806
aa(lp997
F-2.2750003337860107
aF-4.0500006675720215
aF1.9749994277954102
aF0.05000000074505806
aa(lp998
F-2.2750003337860107
aF-4.0500006675720215
aF1.9749994277954102
aF0.05000000074505806
aa(lp999
F-2.2750003337860107
aF-4.0500006675720215
aF1.9749994277954102
aF0.05000000074505806
aa(lp1000
F-2.2750003337860107
aF-4.0500006675720215
aF1.9749994277954102
aF0.05000000074505806
aa(lp1001
F-2.2750003337860107
aF-4.0500006675720215
aF1.8999993801116943
aF0.05000000074505806
aa(lp1002
F-2.2750003337860107
aF-4.0500006675720215
aF1.8499994277954102
aF0.05000000074505806
aa(lp1003
F-2.2750003337860107
aF-4.0500006675720215
aF1.8499994277954102
aF0.05000000074505806
aa(lp1004
F-2.2750003337860107
aF-4.0500006675720215
aF1.8499994277954102
aF0.05000000074505806
aa(lp1005
F-2.2750003337860107
aF-4.0500006675720215
aF1.8499994277954102
aF0.05000000074505806
aa(lp1006
F-2.2750003337860107
aF-4.0500006675720215
aF1.8499994277954102
aF0.05000000074505806
aa(lp1007
F-2.2750003337860107
aF-4.0500006675720215
aF1.7749993801116943
aF0.05000000074505806
aa(lp1008
F-2.2750003337860107
aF-4.0500006675720215
aF1.7499994039535522
aF0.05000000074505806
aa(lp1009
F-2.2750003337860107
aF-4.0500006675720215
aF1.7499994039535522
aF0.05000000074505806
aa(lp1010
F-2.2750003337860107
aF-4.0500006675720215
aF1.7249994277954102
aF0.05000000074505806
aa(lp1011
F-2.2750003337860107
aF-4.0500006675720215
aF1.699999451637268
aF0.05000000074505806
aa(lp1012
F-2.2750003337860107
aF-4.0500006675720215
aF1.699999451637268
aF0.05000000074505806
aa(lp1013
F-2.2750003337860107
aF-4.0500006675720215
aF1.699999451637268
aF0.05000000074505806
aa(lp1014
F-2.2750003337860107
aF-4.0500006675720215
aF1.699999451637268
aF0.05000000074505806
aa(lp1015
F-2.2750003337860107
aF-4.0500006675720215
aF1.699999451637268
aF0.05000000074505806
aa(lp1016
F-2.2750003337860107
aF-4.0500006675720215
aF1.674999475479126
aF0.05000000074505806
aa(lp1017
F-2.2750003337860107
aF-4.0500006675720215
aF1.6499994993209839
aF0.05000000074505806
aa(lp1018
F-2.2750003337860107
aF-4.0500006675720215
aF1.6499994993209839
aF0.05000000074505806
aa(lp1019
F-2.2750003337860107
aF-4.0500006675720215
aF1.6249995231628418
aF0.05000000074505806
aa(lp1020
F-2.2750003337860107
aF-4.0500006675720215
aF1.6499994993209839
aF0.05000000074505806
aa(lp1021
F-2.2750003337860107
aF-4.0500006675720215
aF1.6499994993209839
aF0.05000000074505806
aa(lp1022
F-2.2750003337860107
aF-4.0500006675720215
aF1.6499994993209839
aF0.05000000074505806
aa(lp1023
F-2.2750003337860107
aF-4.0500006675720215
aF1.6499994993209839
aF0.05000000074505806
aa(lp1024
F-2.2750003337860107
aF-4.0500006675720215
aF1.6499994993209839
aF0.05000000074505806
aa(lp1025
F-2.2750003337860107
aF-4.0500006675720215
aF1.5999995470046997
aF0.05000000074505806
aa(lp1026
F-2.2750003337860107
aF-4.0500006675720215
aF1.5499995946884155
aF0.05000000074505806
aa(lp1027
F-2.2750003337860107
aF-4.0500006675720215
aF1.5499995946884155
aF0.05000000074505806
aa(lp1028
F-2.2750003337860107
aF-4.0500006675720215
aF1.5249996185302734
aF0.05000000074505806
aa(lp1029
F-2.2750003337860107
aF-4.0500006675720215
aF1.5249996185302734
aF0.05000000074505806
aa(lp1030
F-2.2750003337860107
aF-4.0500006675720215
aF1.5249996185302734
aF0.05000000074505806
aa(lp1031
F-2.2750003337860107
aF-4.0500006675720215
aF1.4749996662139893
aF0.05000000074505806
aa(lp1032
F-2.2750003337860107
aF-4.0500006675720215
aF1.3999996185302734
aF0.05000000074505806
aa(lp1033
F-2.2750003337860107
aF-4.0500006675720215
aF1.3499996662139893
aF0.05000000074505806
aa(lp1034
F-2.2750003337860107
aF-4.0500006675720215
aF1.3499996662139893
aF0.05000000074505806
aa(lp1035
F-2.2750003337860107
aF-4.0500006675720215
aF1.3499996662139893
aF0.05000000074505806
aa(lp1036
F-2.2750003337860107
aF-4.0500006675720215
aF1.3499996662139893
aF0.05000000074505806
aa(lp1037
F-2.2750003337860107
aF-4.0500006675720215
aF1.3499996662139893
aF0.05000000074505806
aa(lp1038
F-2.2750003337860107
aF-4.0500006675720215
aF1.299999713897705
aF0.05000000074505806
aa(lp1039
F-2.2750003337860107
aF-4.0500006675720215
aF1.299999713897705
aF0.05000000074505806
aa(lp1040
F-2.2750003337860107
aF-4.0500006675720215
aF1.299999713897705
aF0.05000000074505806
aa(lp1041
F-2.2750003337860107
aF-4.0500006675720215
aF1.249999761581421
aF0.05000000074505806
aa(lp1042
F-2.2750003337860107
aF-4.0500006675720215
aF1.249999761581421
aF0.05000000074505806
aa(lp1043
F-2.2750003337860107
aF-4.0500006675720215
aF1.249999761581421
aF0.05000000074505806
aa(lp1044
F-2.2750003337860107
aF-4.0500006675720215
aF1.2249997854232788
aF0.05000000074505806
aa(lp1045
F-2.2750003337860107
aF-4.0500006675720215
aF1.2249997854232788
aF0.05000000074505806
aa(lp1046
F-2.2750003337860107
aF-4.0500006675720215
aF1.2249997854232788
aF0.05000000074505806
aa(lp1047
F-2.2750003337860107
aF-4.0500006675720215
aF1.1999998092651367
aF0.05000000074505806
aa(lp1048
F-2.2750003337860107
aF-4.0500006675720215
aF1.1999998092651367
aF0.05000000074505806
aa(lp1049
F-2.2750003337860107
aF-4.0500006675720215
aF1.1749998331069946
aF0.05000000074505806
aa(lp1050
F-2.2750003337860107
aF-4.0500006675720215
aF1.1749998331069946
aF0.05000000074505806
aa(lp1051
F-2.2750003337860107
aF-4.0500006675720215
aF1.1249998807907104
aF0.05000000074505806
aa(lp1052
F-2.2750003337860107
aF-4.0500006675720215
aF1.1249998807907104
aF0.05000000074505806
aa(lp1053
F-2.2750003337860107
aF-4.0500006675720215
aF1.1249998807907104
aF0.05000000074505806
aa(lp1054
F-2.2750003337860107
aF-4.0500006675720215
aF1.1249998807907104
aF0.05000000074505806
aa(lp1055
F-2.2750003337860107
aF-4.0500006675720215
aF1.0749999284744263
aF0.05000000074505806
aa(lp1056
F-2.2750003337860107
aF-4.0500006675720215
aF1.0749999284744263
aF0.05000000074505806
aa(lp1057
F-2.2750003337860107
aF-4.0500006675720215
aF1.0499999523162842
aF0.05000000074505806
aa(lp1058
F-2.2750003337860107
aF-4.0500006675720215
aF1.0499999523162842
aF0.05000000074505806
aa(lp1059
F-2.2750003337860107
aF-4.0500006675720215
aF1.0499999523162842
aF0.05000000074505806
aa(lp1060
F-2.2750003337860107
aF-4.0500006675720215
aF1.0499999523162842
aF0.05000000074505806
aa(lp1061
F-2.2750003337860107
aF-4.0500006675720215
aF0.9999999403953552
aF0.05000000074505806
aa(lp1062
F-2.2750003337860107
aF-4.0500006675720215
aF0.9999999403953552
aF0.05000000074505806
aa(lp1063
F-2.2750003337860107
aF-4.0500006675720215
aF0.9499999284744263
aF0.05000000074505806
aa(lp1064
F-2.2750003337860107
aF-4.0500006675720215
aF0.9249999523162842
aF0.05000000074505806
aa(lp1065
F-2.2750003337860107
aF-4.0500006675720215
aF0.9249999523162842
aF0.05000000074505806
aa(lp1066
F-2.2750003337860107
aF-4.0500006675720215
aF0.9249999523162842
aF0.05000000074505806
aa(lp1067
F-2.2750003337860107
aF-4.0500006675720215
aF0.9249999523162842
aF0.05000000074505806
aa(lp1068
F-2.2750003337860107
aF-4.0500006675720215
aF0.9249999523162842
aF0.05000000074505806
aa(lp1069
F-2.2750003337860107
aF-4.0500006675720215
aF0.9249999523162842
aF0.05000000074505806
aa(lp1070
F-2.2750003337860107
aF-4.0500006675720215
aF0.8749999403953552
aF0.05000000074505806
aa(lp1071
F-2.2750003337860107
aF-4.0500006675720215
aF0.8499999642372131
aF0.05000000074505806
aa(lp1072
F-2.2750003337860107
aF-4.0500006675720215
aF0.8499999642372131
aF0.05000000074505806
aa(lp1073
F-2.2750003337860107
aF-4.0500006675720215
aF0.75
aF0.05000000074505806
aa(lp1074
F-2.2750003337860107
aF-4.0500006675720215
aF0.75
aF0.05000000074505806
aa(lp1075
F-2.2750003337860107
aF-4.0500006675720215
aF0.7250000238418579
aF0.05000000074505806
aa(lp1076
F-2.2750003337860107
aF-4.0500006675720215
aF0.7250000238418579
aF0.05000000074505806
aa(lp1077
F-2.2750003337860107
aF-4.0500006675720215
aF0.7000000476837158
aF0.05000000074505806
aa(lp1078
F-2.2750003337860107
aF-4.0500006675720215
aF0.6750000715255737
aF0.05000000074505806
aa(lp1079
F-2.2750003337860107
aF-4.0500006675720215
aF0.6750000715255737
aF0.05000000074505806
aa(lp1080
F-2.2750003337860107
aF-4.0500006675720215
aF0.6750000715255737
aF0.05000000074505806
aa(lp1081
F-2.2750003337860107
aF-4.0500006675720215
aF0.6500000953674316
aF0.05000000074505806
aa(lp1082
F-2.2750003337860107
aF-4.0500006675720215
aF0.6500000953674316
aF0.05000000074505806
aa(lp1083
F-2.2750003337860107
aF-4.0500006675720215
aF0.6250001192092896
aF0.05000000074505806
aa(lp1084
F-2.2750003337860107
aF-4.0500006675720215
aF0.5750001072883606
aF0.05000000074505806
aa(lp1085
F-2.2750003337860107
aF-4.0500006675720215
aF0.5750001072883606
aF0.05000000074505806
aa(lp1086
F-2.2750003337860107
aF-4.0500006675720215
aF0.5750001072883606
aF0.05000000074505806
aa(lp1087
F-2.2750003337860107
aF-4.0500006675720215
aF0.5750001072883606
aF0.05000000074505806
aa(lp1088
F-2.2750003337860107
aF-4.0500006675720215
aF0.5750001072883606
aF0.05000000074505806
aa(lp1089
F-2.2750003337860107
aF-4.0500006675720215
aF0.5500001311302185
aF0.05000000074505806
aa(lp1090
F-2.2750003337860107
aF-4.0500006675720215
aF0.5250001549720764
aF0.05000000074505806
aa(lp1091
F-2.2750003337860107
aF-4.0500006675720215
aF0.5250001549720764
aF0.05000000074505806
aa(lp1092
F-2.2750003337860107
aF-4.0500006675720215
aF0.5000001788139343
aF0.05000000074505806
aa(lp1093
F-2.2750003337860107
aF-4.0500006675720215
aF0.5000001788139343
aF0.05000000074505806
aa(lp1094
F-2.2750003337860107
aF-4.0500006675720215
aF0.5000001788139343
aF0.05000000074505806
aa(lp1095
F-2.2750003337860107
aF-4.0500006675720215
aF0.5000001788139343
aF0.05000000074505806
aa(lp1096
F-2.2750003337860107
aF-4.0500006675720215
aF0.47500017285346985
aF0.05000000074505806
aa(lp1097
F-2.2750003337860107
aF-4.0500006675720215
aF0.4250001907348633
aF0.05000000074505806
aa(lp1098
F-2.2750003337860107
aF-4.0500006675720215
aF0.4250001907348633
aF0.05000000074505806
aa(lp1099
F-2.2750003337860107
aF-4.0500006675720215
aF0.4000001847743988
aF0.05000000074505806
aa(lp1100
F-2.2750003337860107
aF-4.0500006675720215
aF0.35000020265579224
aF0.05000000074505806
aa(lp1101
F-2.2750003337860107
aF-4.0500006675720215
aF0.35000020265579224
aF0.05000000074505806
aa(lp1102
F-2.2750003337860107
aF-4.0500006675720215
aF0.35000020265579224
aF0.05000000074505806
aa(lp1103
F-2.2750003337860107
aF-4.0500006675720215
aF0.3000001907348633
aF0.05000000074505806
aa(lp1104
F-2.2750003337860107
aF-4.0500006675720215
aF0.2750001847743988
aF0.05000000074505806
aa(lp1105
F-2.2750003337860107
aF-4.0500006675720215
aF0.2750001847743988
aF0.05000000074505806
aa(lp1106
F-2.2750003337860107
aF-4.0500006675720215
aF0.2750001847743988
aF0.05000000074505806
aa(lp1107
F-2.2750003337860107
aF-4.0500006675720215
aF0.2750001847743988
aF0.05000000074505806
aa(lp1108
F-2.2750003337860107
aF-4.0500006675720215
aF0.2750001847743988
aF0.05000000074505806
aa(lp1109
F-2.2750003337860107
aF-4.0500006675720215
aF0.2500001788139343
aF0.05000000074505806
aa(lp1110
F-2.2750003337860107
aF-4.0500006675720215
aF0.2500001788139343
aF0.05000000074505806
aa(lp1111
F-2.2750003337860107
aF-4.0500006675720215
aF0.2500001788139343
aF0.05000000074505806
aa(lp1112
F-2.2750003337860107
aF-4.0500006675720215
aF0.22500017285346985
aF0.05000000074505806
aa(lp1113
F-2.2750003337860107
aF-4.0500006675720215
aF0.22500017285346985
aF0.05000000074505806
aa(lp1114
F-2.2750003337860107
aF-4.0500006675720215
aF0.20000016689300537
aF0.05000000074505806
aa(lp1115
F-2.2750003337860107
aF-4.0500006675720215
aF0.20000016689300537
aF0.05000000074505806
aa(lp1116
F-2.2750003337860107
aF-4.0500006675720215
aF0.20000016689300537
aF0.05000000074505806
aa(lp1117
F-2.2750003337860107
aF-4.0500006675720215
aF0.20000016689300537
aF0.05000000074505806
aa(lp1118
F-2.2750003337860107
aF-4.0500006675720215
aF0.20000016689300537
aF0.05000000074505806
aa(lp1119
F-2.2750003337860107
aF-4.0500006675720215
aF0.20000016689300537
aF0.05000000074505806
aa(lp1120
F-2.2750003337860107
aF-4.0500006675720215
aF0.20000016689300537
aF0.05000000074505806
aa(lp1121
F-2.2750003337860107
aF-4.0500006675720215
aF0.20000016689300537
aF0.05000000074505806
aa(lp1122
F-2.2750003337860107
aF-4.0500006675720215
aF0.22500017285346985
aF0.05000000074505806
aa(lp1123
F-2.2750003337860107
aF-4.0500006675720215
aF0.2500001788139343
aF0.05000000074505806
aa(lp1124
F-2.2750003337860107
aF-4.0500006675720215
aF0.2500001788139343
aF0.05000000074505806
aa(lp1125
F-2.2750003337860107
aF-4.0500006675720215
aF0.2500001788139343
aF0.05000000074505806
aa(lp1126
F-2.2750003337860107
aF-4.0500006675720215
aF0.20000018179416656
aF0.05000000074505806
aa(lp1127
F-2.2750003337860107
aF-4.0500006675720215
aF0.17500019073486328
aF0.05000000074505806
aa(lp1128
F-2.2750003337860107
aF-4.0500006675720215
aF0.17500019073486328
aF0.05000000074505806
aa(lp1129
F-2.2750003337860107
aF-4.0500006675720215
aF0.17500019073486328
aF0.05000000074505806
aa(lp1130
F-2.2750003337860107
aF-4.0500006675720215
aF0.17500019073486328
aF0.05000000074505806
aa(lp1131
F-2.2750003337860107
aF-4.0500006675720215
aF0.17500019073486328
aF0.05000000074505806
aa(lp1132
F-2.2750003337860107
aF-4.0500006675720215
aF0.12500019371509552
aF0.05000000074505806
aa(lp1133
F-2.2750003337860107
aF-4.0500006675720215
aF0.12500019371509552
aF0.05000000074505806
aa(lp1134
F-2.2750003337860107
aF-4.0500006675720215
aF0.10000019520521164
aF0.05000000074505806
aa(lp1135
F-2.2750003337860107
aF-4.0500006675720215
aF0.10000019520521164
aF0.05000000074505806
aa(lp1136
F-2.2750003337860107
aF-4.0500006675720215
aF0.10000019520521164
aF0.05000000074505806
aa(lp1137
F-2.2750003337860107
aF-4.0500006675720215
aF0.10000019520521164
aF0.05000000074505806
aa(lp1138
F-2.2750003337860107
aF-4.0500006675720215
aF0.10000019520521164
aF0.05000000074505806
aa(lp1139
F-2.2750003337860107
aF-4.0500006675720215
aF0.10000019520521164
aF0.05000000074505806
aa(lp1140
F-2.2750003337860107
aF-4.0500006675720215
aF0.10000019520521164
aF0.05000000074505806
aa(lp1141
F-2.2750003337860107
aF-4.0500006675720215
aF0.07500019669532776
aF0.05000000074505806
aa(lp1142
F-2.2750003337860107
aF-4.0500006675720215
aF0.07500019669532776
aF0.05000000074505806
aa(lp1143
F-2.2750003337860107
aF-4.0500006675720215
aF0.07500019669532776
aF0.05000000074505806
aa(lp1144
F-2.2750003337860107
aF-4.0500006675720215
aF0.07500019669532776
aF0.05000000074505806
aa(lp1145
F-2.2750003337860107
aF-4.0500006675720215
aF0.07500019669532776
aF0.05000000074505806
aa(lp1146
F-2.2750003337860107
aF-4.0500006675720215
aF0.07500019669532776
aF0.05000000074505806
aa(lp1147
F-2.2750003337860107
aF-4.0500006675720215
aF0.07500019669532776
aF0.05000000074505806
aa(lp1148
F-2.2750003337860107
aF-4.0500006675720215
aF0.07500019669532776
aF0.05000000074505806
aa(lp1149
F-2.2750003337860107
aF-4.0500006675720215
aF0.07500019669532776
aF0.05000000074505806
aa(lp1150
F-2.2750003337860107
aF-4.0500006675720215
aF0.07500019669532776
aF0.05000000074505806
aa(lp1151
F-2.2750003337860107
aF-4.0500006675720215
aF0.07500019669532776
aF0.05000000074505806
aa(lp1152
F-2.2750003337860107
aF-4.0500006675720215
aF0.07500019669532776
aF0.05000000074505806
aa(lp1153
F-2.2750003337860107
aF-4.0500006675720215
aF0.07500019669532776
aF0.05000000074505806
aa(lp1154
F-2.2750003337860107
aF-4.0500006675720215
aF0.07500019669532776
aF0.05000000074505806
aa(lp1155
F-2.2750003337860107
aF-4.0500006675720215
aF0.07500019669532776
aF0.05000000074505806
aa(lp1156
F-2.2750003337860107
aF-4.0500006675720215
aF0.07500019669532776
aF0.05000000074505806
aa(lp1157
F-2.2750003337860107
aF-4.0500006675720215
aF0.07500019669532776
aF0.05000000074505806
aa(lp1158
F-2.2750003337860107
aF-4.0500006675720215
aF0.07500019669532776
aF0.05000000074505806
aa(lp1159
F-2.2750003337860107
aF-4.0500006675720215
aF0.07500019669532776
aF0.05000000074505806
aa(lp1160
F-2.2750003337860107
aF-4.0500006675720215
aF0.07500019669532776
aF0.05000000074505806
aa(lp1161
F-2.2750003337860107
aF-4.0500006675720215
aF0.07500019669532776
aF0.05000000074505806
aa(lp1162
F-2.2750003337860107
aF-4.0500006675720215
aF0.07500019669532776
aF0.05000000074505806
aa(lp1163
F-2.2750003337860107
aF-4.0500006675720215
aF0.07500019669532776
aF0.05000000074505806
aa(lp1164
F-2.2750003337860107
aF-4.0500006675720215
aF0.07500019669532776
aF0.05000000074505806
aa(lp1165
F-2.2750003337860107
aF-4.0500006675720215
aF0.07500019669532776
aF0.05000000074505806
aa(lp1166
F-2.2750003337860107
aF-4.0500006675720215
aF0.07500019669532776
aF0.05000000074505806
aa(lp1167
F-2.2750003337860107
aF-4.0500006675720215
aF0.07500019669532776
aF0.05000000074505806
aa(lp1168
F-2.2750003337860107
aF-4.0500006675720215
aF0.07500019669532776
aF0.05000000074505806
aa(lp1169
F-2.2750003337860107
aF-4.0500006675720215
aF0.07500019669532776
aF0.05000000074505806
aa(lp1170
F-2.2750003337860107
aF-4.0500006675720215
aF0.07500019669532776
aF0.05000000074505806
aa(lp1171
F-2.2750003337860107
aF-4.0500006675720215
aF0.07500019669532776
aF0.05000000074505806
aa(lp1172
F-2.2750003337860107
aF-4.0500006675720215
aF0.07500019669532776
aF0.05000000074505806
aa(lp1173
F-2.2750003337860107
aF-4.0500006675720215
aF0.07500019669532776
aF0.05000000074505806
aa(lp1174
F-2.2750003337860107
aF-4.0500006675720215
aF0.07500019669532776
aF0.05000000074505806
aa(lp1175
F-2.2750003337860107
aF-4.0500006675720215
aF0.07500019669532776
aF0.05000000074505806
aa(lp1176
F-2.2750003337860107
aF-4.0500006675720215
aF0.07500019669532776
aF0.05000000074505806
aa(lp1177
F-2.2750003337860107
aF-4.0500006675720215
aF0.07500019669532776
aF0.05000000074505806
aa(lp1178
F-2.2750003337860107
aF-4.0500006675720215
aF0.07500019669532776
aF0.05000000074505806
aa(lp1179
F-2.2750003337860107
aF-4.0500006675720215
aF0.07500019669532776
aF0.05000000074505806
aa(lp1180
F-2.2750003337860107
aF-4.0500006675720215
aF0.07500019669532776
aF0.05000000074505806
aa(lp1181
F-2.2750003337860107
aF-4.0500006675720215
aF0.07500019669532776
aF0.05000000074505806
aa(lp1182
F-2.2750003337860107
aF-4.0500006675720215
aF0.07500019669532776
aF0.05000000074505806
aa(lp1183
F-2.2750003337860107
aF-4.0500006675720215
aF0.07500019669532776
aF0.05000000074505806
aa(lp1184
F-2.2750003337860107
aF-4.0500006675720215
aF0.07500019669532776
aF0.05000000074505806
aa(lp1185
F-2.2750003337860107
aF-4.0500006675720215
aF0.07500019669532776
aF0.05000000074505806
aa(lp1186
F-2.2750003337860107
aF-4.0500006675720215
aF0.07500019669532776
aF0.05000000074505806
aa(lp1187
F-2.2750003337860107
aF-4.0500006675720215
aF0.07500019669532776
aF0.05000000074505806
aa(lp1188
F-2.2750003337860107
aF-4.0500006675720215
aF0.07500019669532776
aF0.05000000074505806
aa(lp1189
F-2.2750003337860107
aF-4.0500006675720215
aF0.07500019669532776
aF0.05000000074505806
aa(lp1190
F-2.2750003337860107
aF-4.0500006675720215
aF0.07500019669532776
aF0.05000000074505806
aa(lp1191
F-2.2750003337860107
aF-4.0500006675720215
aF0.07500019669532776
aF0.05000000074505806
aa(lp1192
F-2.2750003337860107
aF-4.0500006675720215
aF0.07500019669532776
aF0.05000000074505806
aa(lp1193
F-2.2750003337860107
aF-4.0500006675720215
aF0.07500019669532776
aF0.05000000074505806
aa(lp1194
F-2.2750003337860107
aF-4.0500006675720215
aF0.07500019669532776
aF0.05000000074505806
aa(lp1195
F-2.2750003337860107
aF-4.0500006675720215
aF0.07500019669532776
aF0.05000000074505806
aa(lp1196
F-2.2750003337860107
aF-4.0500006675720215
aF0.07500019669532776
aF0.05000000074505806
aa(lp1197
F-2.2750003337860107
aF-4.0500006675720215
aF0.07500019669532776
aF0.05000000074505806
aa(lp1198
F-2.2750003337860107
aF-4.0500006675720215
aF0.07500019669532776
aF0.05000000074505806
aa(lp1199
F-2.2750003337860107
aF-4.0500006675720215
aF0.07500019669532776
aF0.05000000074505806
aa(lp1200
F-2.2750003337860107
aF-4.0500006675720215
aF0.07500019669532776
aF0.05000000074505806
aa(lp1201
F-2.2750003337860107
aF-4.0500006675720215
aF0.07500019669532776
aF0.05000000074505806
aa(lp1202
F-2.2750003337860107
aF-4.0500006675720215
aF0.07500019669532776
aF0.05000000074505806
aa(lp1203
F-2.2750003337860107
aF-4.0500006675720215
aF0.07500019669532776
aF0.05000000074505806
aa(lp1204
F-2.2750003337860107
aF-4.0500006675720215
aF0.07500019669532776
aF0.05000000074505806
aa(lp1205
F-2.2750003337860107
aF-4.0500006675720215
aF0.07500019669532776
aF0.05000000074505806
aa(lp1206
F-2.2750003337860107
aF-4.0500006675720215
aF0.07500019669532776
aF0.05000000074505806
aa(lp1207
F-2.2750003337860107
aF-4.0500006675720215
aF0.07500019669532776
aF0.05000000074505806
aa(lp1208
F-2.2750003337860107
aF-4.0500006675720215
aF0.07500019669532776
aF0.05000000074505806
aa(lp1209
F-2.2750003337860107
aF-4.0500006675720215
aF0.07500019669532776
aF0.05000000074505806
aa(lp1210
F-2.2750003337860107
aF-4.0500006675720215
aF0.07500019669532776
aF0.05000000074505806
aa(lp1211
F-2.2750003337860107
aF-4.0500006675720215
aF0.07500019669532776
aF0.05000000074505806
aa(lp1212
F-2.2750003337860107
aF-4.0500006675720215
aF0.07500019669532776
aF0.05000000074505806
aa(lp1213
F-2.2750003337860107
aF-4.0500006675720215
aF0.07500019669532776
aF0.05000000074505806
aa(lp1214
F-2.2750003337860107
aF-4.0500006675720215
aF0.07500019669532776
aF0.05000000074505806
aa(lp1215
F-2.2750003337860107
aF-4.0500006675720215
aF0.07500019669532776
aF0.05000000074505806
aa(lp1216
F-2.2750003337860107
aF-4.0500006675720215
aF0.07500019669532776
aF0.05000000074505806
aa(lp1217
F-2.2750003337860107
aF-4.0500006675720215
aF0.07500019669532776
aF0.05000000074505806
aa(lp1218
F-2.2750003337860107
aF-4.0500006675720215
aF0.07500019669532776
aF0.05000000074505806
aa(lp1219
F-2.2750003337860107
aF-4.0500006675720215
aF0.07500019669532776
aF0.05000000074505806
aa(lp1220
F-2.2750003337860107
aF-4.0500006675720215
aF0.07500019669532776
aF0.05000000074505806
aa(lp1221
F-2.2750003337860107
aF-4.0500006675720215
aF0.07500019669532776
aF0.05000000074505806
aa(lp1222
F-2.2750003337860107
aF-4.0500006675720215
aF0.07500019669532776
aF0.05000000074505806
aa(lp1223
F-2.2750003337860107
aF-4.0500006675720215
aF0.07500019669532776
aF0.05000000074505806
aa(lp1224
F-2.2750003337860107
aF-4.0500006675720215
aF0.07500019669532776
aF0.05000000074505806
aa(lp1225
F-2.2750003337860107
aF-4.0500006675720215
aF0.07500019669532776
aF0.05000000074505806
aa(lp1226
F-2.2750003337860107
aF-4.0500006675720215
aF0.07500019669532776
aF0.05000000074505806
aa(lp1227
F-2.2750003337860107
aF-4.0500006675720215
aF0.07500019669532776
aF0.05000000074505806
aa(lp1228
F-2.2750003337860107
aF-4.0500006675720215
aF0.07500019669532776
aF0.05000000074505806
aa(lp1229
F-2.2750003337860107
aF-4.0500006675720215
aF0.07500019669532776
aF0.05000000074505806
aa(lp1230
F-2.2750003337860107
aF-4.0500006675720215
aF0.07500019669532776
aF0.05000000074505806
aa(lp1231
F-2.2750003337860107
aF-4.0500006675720215
aF0.07500019669532776
aF0.05000000074505806
aa(lp1232
F-2.2750003337860107
aF-4.0500006675720215
aF0.07500019669532776
aF0.05000000074505806
aa(lp1233
F-2.2750003337860107
aF-4.0500006675720215
aF0.07500019669532776
aF0.05000000074505806
aa(lp1234
F-2.2750003337860107
aF-4.0500006675720215
aF0.07500019669532776
aF0.05000000074505806
aa(lp1235
F-2.2750003337860107
aF-4.0500006675720215
aF0.07500019669532776
aF0.05000000074505806
aa(lp1236
F-2.2750003337860107
aF-4.0500006675720215
aF0.07500019669532776
aF0.05000000074505806
aa(lp1237
F-2.2750003337860107
aF-4.0500006675720215
aF0.07500019669532776
aF0.05000000074505806
aa(lp1238
F-2.2750003337860107
aF-4.0500006675720215
aF0.07500019669532776
aF0.05000000074505806
aa(lp1239
F-2.2750003337860107
aF-4.0500006675720215
aF0.07500019669532776
aF0.05000000074505806
aa(lp1240
F-2.2750003337860107
aF-4.0500006675720215
aF0.07500019669532776
aF0.05000000074505806
aa(lp1241
F-2.2750003337860107
aF-4.0500006675720215
aF0.07500019669532776
aF0.05000000074505806
aa(lp1242
F-2.2750003337860107
aF-4.0500006675720215
aF0.07500019669532776
aF0.05000000074505806
aa(lp1243
F-2.2750003337860107
aF-4.0500006675720215
aF0.07500019669532776
aF0.05000000074505806
aa(lp1244
F-2.2750003337860107
aF-4.0500006675720215
aF0.07500019669532776
aF0.05000000074505806
aa(lp1245
F-2.2750003337860107
aF-4.0500006675720215
aF0.07500019669532776
aF0.05000000074505806
aa(lp1246
F-2.2750003337860107
aF-4.0500006675720215
aF0.07500019669532776
aF0.05000000074505806
aa(lp1247
F-2.2750003337860107
aF-4.0500006675720215
aF0.07500019669532776
aF0.05000000074505806
aa(lp1248
F-2.2750003337860107
aF-4.0500006675720215
aF0.07500019669532776
aF0.05000000074505806
aa(lp1249
F-2.2750003337860107
aF-4.0500006675720215
aF0.07500019669532776
aF0.05000000074505806
aa(lp1250
F-2.2750003337860107
aF-4.0500006675720215
aF0.07500019669532776
aF0.05000000074505806
aa(lp1251
F-2.2750003337860107
aF-4.0500006675720215
aF0.07500019669532776
aF0.05000000074505806
aa(lp1252
F-2.2750003337860107
aF-4.0500006675720215
aF0.07500019669532776
aF0.05000000074505806
aa(lp1253
F-2.2750003337860107
aF-4.0500006675720215
aF0.07500019669532776
aF0.05000000074505806
aa(lp1254
F-2.2750003337860107
aF-4.0500006675720215
aF0.07500019669532776
aF0.05000000074505806
aa(lp1255
F-2.2750003337860107
aF-4.0500006675720215
aF0.07500019669532776
aF0.05000000074505806
aa(lp1256
F-2.2750003337860107
aF-4.0500006675720215
aF0.07500019669532776
aF0.05000000074505806
aa(lp1257
F-2.2750003337860107
aF-4.0500006675720215
aF0.07500019669532776
aF0.05000000074505806
aa(lp1258
F-2.2750003337860107
aF-4.0500006675720215
aF0.07500019669532776
aF0.05000000074505806
aa(lp1259
F-2.2750003337860107
aF-4.0500006675720215
aF0.07500019669532776
aF0.05000000074505806
aa(lp1260
F-2.2750003337860107
aF-4.0500006675720215
aF0.07500019669532776
aF0.05000000074505806
aa(lp1261
F-2.2750003337860107
aF-4.0500006675720215
aF0.07500019669532776
aF0.05000000074505806
aa(lp1262
F-2.2750003337860107
aF-4.0500006675720215
aF0.07500019669532776
aF0.05000000074505806
aa(lp1263
F-2.2750003337860107
aF-4.0500006675720215
aF0.07500019669532776
aF0.05000000074505806
aa(lp1264
F-2.2750003337860107
aF-4.0500006675720215
aF0.07500019669532776
aF0.05000000074505806
aa(lp1265
F-2.2750003337860107
aF-4.0500006675720215
aF0.07500019669532776
aF0.05000000074505806
aa(lp1266
F-2.2750003337860107
aF-4.0500006675720215
aF0.07500019669532776
aF0.05000000074505806
aa(lp1267
F-2.2750003337860107
aF-4.0500006675720215
aF0.07500019669532776
aF0.05000000074505806
aa(lp1268
F-2.2750003337860107
aF-4.0500006675720215
aF0.07500019669532776
aF0.05000000074505806
aa(lp1269
F-2.2750003337860107
aF-4.0500006675720215
aF0.07500019669532776
aF0.05000000074505806
aa(lp1270
F-2.2750003337860107
aF-4.0500006675720215
aF0.07500019669532776
aF0.05000000074505806
aa(lp1271
F-2.2750003337860107
aF-4.0500006675720215
aF0.07500019669532776
aF0.05000000074505806
aa(lp1272
F-2.2750003337860107
aF-4.0500006675720215
aF0.07500019669532776
aF0.05000000074505806
aa(lp1273
F-2.2750003337860107
aF-4.0500006675720215
aF0.07500019669532776
aF0.05000000074505806
aa(lp1274
F-2.2750003337860107
aF-4.0500006675720215
aF0.07500019669532776
aF0.05000000074505806
aa(lp1275
F-2.2750003337860107
aF-4.0500006675720215
aF0.07500019669532776
aF0.05000000074505806
aa(lp1276
F-2.2750003337860107
aF-4.0500006675720215
aF0.07500019669532776
aF0.05000000074505806
aa.