(lp0
(lp1
F0.0
aF0.0
aF0.0
aF0.05000000074505806
aa(lp2
F0.0
aF0.0
aF0.0
aF0.05000000074505806
aa(lp3
F0.0
aF0.0
aF0.0
aF0.05000000074505806
aa(lp4
F0.0
aF0.0
aF0.0
aF0.05000000074505806
aa(lp5
F0.0
aF0.0
aF0.0
aF0.05000000074505806
aa(lp6
F0.0
aF0.0
aF0.0
aF0.05000000074505806
aa(lp7
F0.0
aF0.0
aF0.0
aF0.05000000074505806
aa(lp8
F0.0
aF0.0
aF0.0
aF0.05000000074505806
aa(lp9
F0.0
aF0.0
aF0.0
aF0.05000000074505806
aa(lp10
F0.0
aF0.0
aF0.0
aF0.05000000074505806
aa(lp11
F0.0
aF0.0
aF0.0
aF0.05000000074505806
aa(lp12
F0.0
aF0.0
aF0.0
aF0.05000000074505806
aa(lp13
F0.0
aF0.0
aF0.0
aF0.05000000074505806
aa(lp14
F0.0
aF0.0
aF0.0
aF0.05000000074505806
aa(lp15
F0.0
aF0.0
aF0.0
aF0.05000000074505806
aa(lp16
F0.0
aF0.0
aF0.0
aF0.05000000074505806
aa(lp17
F0.0
aF0.0
aF0.0
aF0.05000000074505806
aa(lp18
F0.0
aF0.0
aF0.0
aF0.05000000074505806
aa(lp19
F0.0
aF0.0
aF0.0
aF0.05000000074505806
aa(lp20
F0.0
aF0.0
aF0.0
aF0.05000000074505806
aa(lp21
F0.0
aF0.0
aF0.0
aF0.05000000074505806
aa(lp22
F0.0
aF0.0
aF0.0
aF0.05000000074505806
aa(lp23
F0.0
aF0.0
aF0.0
aF0.05000000074505806
aa(lp24
F0.0
aF0.0
aF0.0
aF0.05000000074505806
aa(lp25
F0.0
aF0.0
aF0.0
aF0.05000000074505806
aa(lp26
F0.0
aF0.0
aF0.0
aF0.05000000074505806
aa(lp27
F0.0
aF0.0
aF0.0
aF0.05000000074505806
aa(lp28
F0.0
aF0.0
aF0.0
aF0.05000000074505806
aa(lp29
F0.0
aF0.0
aF0.0
aF0.05000000074505806
aa(lp30
F0.0
aF0.0
aF0.0
aF0.05000000074505806
aa(lp31
F0.0
aF0.0
aF0.0
aF0.05000000074505806
aa(lp32
F0.0
aF0.0
aF0.0
aF0.05000000074505806
aa(lp33
F0.0
aF0.0
aF0.0
aF0.05000000074505806
aa(lp34
F0.0
aF0.0
aF0.0
aF0.05000000074505806
aa(lp35
F0.0
aF0.0
aF0.0
aF0.05000000074505806
aa(lp36
F0.0
aF0.0
aF0.0
aF0.05000000074505806
aa(lp37
F0.0
aF0.0
aF0.0
aF0.05000000074505806
aa(lp38
F0.0
aF0.0
aF0.0
aF0.05000000074505806
aa(lp39
F0.0
aF0.0
aF0.0
aF0.05000000074505806
aa(lp40
F0.0
aF0.0
aF0.0
aF0.05000000074505806
aa(lp41
F0.0
aF0.0
aF0.0
aF0.05000000074505806
aa(lp42
F0.0
aF0.0
aF0.0
aF0.05000000074505806
aa(lp43
F0.0
aF0.0
aF0.0
aF0.05000000074505806
aa(lp44
F0.0
aF0.0
aF0.0
aF0.05000000074505806
aa(lp45
F0.0
aF0.0
aF0.0
aF0.05000000074505806
aa(lp46
F0.0
aF0.0
aF0.0
aF0.05000000074505806
aa(lp47
F0.0
aF0.0
aF0.0
aF0.05000000074505806
aa(lp48
F0.0
aF0.0
aF0.0
aF0.05000000074505806
aa(lp49
F0.0
aF0.0
aF0.0
aF0.05000000074505806
aa(lp50
F0.0
aF0.0
aF0.0
aF0.05000000074505806
aa(lp51
F0.0
aF0.0
aF0.0
aF0.05000000074505806
aa(lp52
F0.0
aF0.0
aF0.0
aF0.05000000074505806
aa(lp53
F0.0
aF0.0
aF0.0
aF0.05000000074505806
aa(lp54
F0.0
aF0.0
aF0.0
aF0.05000000074505806
aa(lp55
F0.0
aF0.0
aF0.0
aF0.05000000074505806
aa(lp56
F0.0
aF0.0
aF0.0
aF0.05000000074505806
aa(lp57
F0.0
aF0.0
aF0.0
aF0.05000000074505806
aa(lp58
F0.0
aF0.0
aF0.0
aF0.05000000074505806
aa(lp59
F0.0
aF0.0
aF0.0
aF0.05000000074505806
aa(lp60
F0.0
aF0.0
aF0.0
aF0.05000000074505806
aa(lp61
F0.0
aF0.0
aF0.0
aF0.05000000074505806
aa(lp62
F0.0
aF0.0
aF0.0
aF0.05000000074505806
aa(lp63
F0.0
aF0.0
aF0.0
aF0.05000000074505806
aa(lp64
F0.0
aF0.0
aF0.0
aF0.05000000074505806
aa(lp65
F0.0
aF0.0
aF0.0
aF0.05000000074505806
aa(lp66
F0.0
aF0.0
aF0.0
aF0.05000000074505806
aa(lp67
F0.0
aF0.0
aF0.0
aF0.05000000074505806
aa(lp68
F0.0
aF0.0
aF0.0
aF0.05000000074505806
aa(lp69
F0.0
aF0.0
aF0.0
aF0.05000000074505806
aa(lp70
F0.0
aF0.0
aF0.0
aF0.05000000074505806
aa(lp71
F0.0
aF0.0
aF0.0
aF0.05000000074505806
aa(lp72
F0.0
aF0.0
aF0.0
aF0.05000000074505806
aa(lp73
F0.0
aF0.0
aF0.0
aF0.05000000074505806
aa(lp74
F0.0
aF0.0
aF0.0
aF0.05000000074505806
aa(lp75
F0.0
aF0.0
aF0.0
aF0.05000000074505806
aa(lp76
F0.0
aF0.0
aF0.0
aF0.05000000074505806
aa(lp77
F0.0
aF0.0
aF0.0
aF0.05000000074505806
aa(lp78
F0.0
aF0.0
aF0.0
aF0.05000000074505806
aa(lp79
F0.0
aF0.0
aF0.0
aF0.05000000074505806
aa(lp80
F0.0
aF0.0
aF0.0
aF0.05000000074505806
aa(lp81
F0.0
aF0.0
aF0.0
aF0.05000000074505806
aa(lp82
F0.0
aF0.0
aF0.0
aF0.05000000074505806
aa(lp83
F0.0
aF0.0
aF0.0
aF0.05000000074505806
aa(lp84
F0.0
aF0.0
aF0.0
aF0.05000000074505806
aa(lp85
F0.0
aF0.0
aF0.0
aF0.05000000074505806
aa(lp86
F0.0
aF0.0
aF0.0
aF0.05000000074505806
aa(lp87
F0.0
aF0.0
aF0.0
aF0.05000000074505806
aa(lp88
F0.0
aF0.0
aF0.0
aF0.05000000074505806
aa(lp89
F0.0
aF0.0
aF0.0
aF0.05000000074505806
aa(lp90
F0.0
aF0.0
aF0.0
aF0.05000000074505806
aa(lp91
F0.0
aF0.0
aF0.0
aF0.05000000074505806
aa(lp92
F0.0
aF0.0
aF0.0
aF0.05000000074505806
aa(lp93
F0.0
aF0.0
aF0.0
aF0.05000000074505806
aa(lp94
F0.0
aF0.0
aF0.0
aF0.05000000074505806
aa(lp95
F0.0
aF0.0
aF0.0
aF0.05000000074505806
aa(lp96
F0.0
aF0.0
aF0.0
aF0.05000000074505806
aa(lp97
F0.0
aF0.0
aF0.0
aF0.05000000074505806
aa(lp98
F0.0
aF0.0
aF0.0
aF0.05000000074505806
aa(lp99
F0.0
aF0.0
aF0.0
aF0.05000000074505806
aa(lp100
F0.0
aF0.0
aF0.0
aF0.05000000074505806
aa(lp101
F0.0
aF0.0
aF0.0
aF0.05000000074505806
aa(lp102
F0.0
aF0.0
aF0.0
aF0.05000000074505806
aa(lp103
F0.0
aF0.0
aF0.0
aF0.05000000074505806
aa(lp104
F0.0
aF0.0
aF0.0
aF0.05000000074505806
aa(lp105
F0.0
aF0.0
aF0.0
aF0.05000000074505806
aa(lp106
F0.0
aF0.0
aF0.0
aF0.05000000074505806
aa(lp107
F0.0
aF0.0
aF0.0
aF0.05000000074505806
aa(lp108
F0.0
aF0.0
aF0.0
aF0.05000000074505806
aa(lp109
F0.0
aF0.0
aF0.0
aF0.05000000074505806
aa(lp110
F0.0
aF0.0
aF0.0
aF0.05000000074505806
aa(lp111
F0.0
aF0.0
aF0.0
aF0.05000000074505806
aa(lp112
F0.0
aF0.0
aF0.0
aF0.05000000074505806
aa(lp113
F0.0
aF0.0
aF0.0
aF0.05000000074505806
aa(lp114
F0.0
aF0.0
aF0.0
aF0.05000000074505806
aa(lp115
F0.0
aF0.0
aF0.0
aF0.05000000074505806
aa(lp116
F0.0
aF0.0
aF0.0
aF0.05000000074505806
aa(lp117
F0.0
aF0.0
aF0.0
aF0.05000000074505806
aa(lp118
F0.0
aF0.0
aF0.0
aF0.05000000074505806
aa(lp119
F0.0
aF0.0
aF0.0
aF0.05000000074505806
aa(lp120
F0.0
aF0.0
aF0.0
aF0.05000000074505806
aa(lp121
F0.0
aF0.0
aF0.0
aF0.05000000074505806
aa(lp122
F0.0
aF0.0
aF0.0
aF0.05000000074505806
aa(lp123
F0.0
aF0.0
aF0.0
aF0.05000000074505806
aa(lp124
F0.0
aF0.0
aF0.0
aF0.05000000074505806
aa(lp125
F0.0
aF0.0
aF0.0
aF0.05000000074505806
aa(lp126
F0.0
aF0.0
aF0.0
aF0.05000000074505806
aa(lp127
F0.0
aF0.0
aF0.0
aF0.05000000074505806
aa(lp128
F0.0
aF0.0
aF0.0
aF0.05000000074505806
aa(lp129
F0.0
aF0.0
aF0.0
aF0.05000000074505806
aa(lp130
F0.0
aF0.0
aF0.0
aF0.05000000074505806
aa(lp131
F0.0
aF0.0
aF0.0
aF0.05000000074505806
aa(lp132
F0.0
aF0.0
aF0.0
aF0.05000000074505806
aa(lp133
F0.0
aF0.0
aF0.0
aF0.05000000074505806
aa(lp134
F0.0
aF0.0
aF0.0
aF0.05000000074505806
aa(lp135
F0.0
aF0.0
aF0.0
aF0.05000000074505806
aa(lp136
F0.0
aF0.0
aF0.0
aF0.05000000074505806
aa(lp137
F0.0
aF0.0
aF0.0
aF0.05000000074505806
aa(lp138
F0.0
aF0.0
aF0.0
aF0.05000000074505806
aa(lp139
F0.0
aF0.0
aF0.0
aF0.05000000074505806
aa(lp140
F0.0
aF0.0
aF0.0
aF0.05000000074505806
aa(lp141
F0.0
aF0.0
aF0.0
aF0.05000000074505806
aa(lp142
F0.0
aF0.0
aF0.0
aF0.05000000074505806
aa(lp143
F0.0
aF0.0
aF0.0
aF0.05000000074505806
aa(lp144
F0.0
aF0.0
aF0.0
aF0.05000000074505806
aa(lp145
F0.0
aF0.0
aF0.0
aF0.05000000074505806
aa(lp146
F0.0
aF0.0
aF0.0
aF0.05000000074505806
aa(lp147
F0.0
aF0.0
aF0.0
aF0.05000000074505806
aa(lp148
F0.0
aF0.0
aF0.0
aF0.05000000074505806
aa(lp149
F0.0
aF0.0
aF0.0
aF0.05000000074505806
aa(lp150
F0.0
aF0.0
aF0.0
aF0.05000000074505806
aa(lp151
F0.0
aF0.0
aF0.0
aF0.05000000074505806
aa(lp152
F0.0
aF0.0
aF0.0
aF0.05000000074505806
aa(lp153
F0.0
aF0.0
aF0.0
aF0.05000000074505806
aa(lp154
F0.0
aF0.0
aF0.0
aF0.05000000074505806
aa(lp155
F0.0
aF0.0
aF0.0
aF0.05000000074505806
aa(lp156
F0.0
aF0.0
aF0.0
aF0.05000000074505806
aa(lp157
F0.0
aF0.0
aF0.0
aF0.05000000074505806
aa(lp158
F0.0
aF0.0
aF0.0
aF0.05000000074505806
aa(lp159
F0.0
aF0.0
aF0.0
aF0.05000000074505806
aa(lp160
F0.0
aF0.0
aF0.0
aF0.05000000074505806
aa(lp161
F0.0
aF0.0
aF0.0
aF0.05000000074505806
aa(lp162
F0.0
aF0.0
aF0.0
aF0.05000000074505806
aa(lp163
F0.0
aF0.0
aF0.0
aF0.05000000074505806
aa(lp164
F0.0
aF0.0
aF0.0
aF0.05000000074505806
aa(lp165
F0.0
aF0.0
aF0.0
aF0.05000000074505806
aa(lp166
F0.0
aF0.0
aF0.0
aF0.05000000074505806
aa(lp167
F0.0
aF0.0
aF0.0
aF0.05000000074505806
aa(lp168
F0.0
aF0.0
aF0.0
aF0.05000000074505806
aa(lp169
F0.0
aF0.0
aF0.0
aF0.05000000074505806
aa(lp170
F0.0
aF0.0
aF0.0
aF0.05000000074505806
aa(lp171
F0.0
aF0.0
aF0.0
aF0.05000000074505806
aa(lp172
F0.0
aF0.0
aF0.0
aF0.05000000074505806
aa(lp173
F0.0
aF0.0
aF0.0
aF0.05000000074505806
aa(lp174
F0.0
aF0.0
aF0.0
aF0.05000000074505806
aa(lp175
F0.0
aF0.0
aF0.0
aF0.05000000074505806
aa(lp176
F0.0
aF0.0
aF0.0
aF0.05000000074505806
aa(lp177
F0.0
aF0.0
aF0.0
aF0.05000000074505806
aa(lp178
F0.0
aF0.0
aF0.0
aF0.05000000074505806
aa(lp179
F0.0
aF0.0
aF0.0
aF0.05000000074505806
aa(lp180
F0.0
aF0.0
aF0.0
aF0.05000000074505806
aa(lp181
F0.0
aF0.0
aF0.0
aF0.05000000074505806
aa(lp182
F0.0
aF0.0
aF0.0
aF0.05000000074505806
aa(lp183
F0.0
aF0.0
aF0.0
aF0.05000000074505806
aa(lp184
F0.0
aF0.0
aF0.0
aF0.05000000074505806
aa(lp185
F0.0
aF0.0
aF0.0
aF0.05000000074505806
aa(lp186
F0.0
aF0.0
aF0.0
aF0.05000000074505806
aa(lp187
F0.0
aF0.0
aF0.0
aF0.05000000074505806
aa(lp188
F0.0
aF0.0
aF0.0
aF0.05000000074505806
aa(lp189
F0.0
aF0.0
aF0.0
aF0.05000000074505806
aa(lp190
F0.0
aF0.0
aF0.0
aF0.05000000074505806
aa(lp191
F0.0
aF0.0
aF0.0
aF0.05000000074505806
aa(lp192
F0.0
aF0.0
aF0.0
aF0.05000000074505806
aa(lp193
F0.0
aF0.0
aF0.0
aF0.05000000074505806
aa(lp194
F0.0
aF0.0
aF0.0
aF0.05000000074505806
aa(lp195
F0.0
aF0.0
aF0.0
aF0.05000000074505806
aa(lp196
F0.0
aF0.0
aF0.0
aF0.05000000074505806
aa(lp197
F0.0
aF0.0
aF0.0
aF0.05000000074505806
aa(lp198
F0.0
aF0.0
aF0.0
aF0.05000000074505806
aa(lp199
F0.0
aF0.0
aF0.0
aF0.05000000074505806
aa(lp200
F0.0
aF0.0
aF0.0
aF0.05000000074505806
aa(lp201
F0.0
aF0.0
aF0.0
aF0.05000000074505806
aa(lp202
F0.0
aF0.0
aF0.0
aF0.05000000074505806
aa(lp203
F0.0
aF0.0
aF0.0
aF0.05000000074505806
aa(lp204
F0.0
aF0.0
aF0.0
aF0.05000000074505806
aa(lp205
F0.0
aF0.0
aF0.0
aF0.05000000074505806
aa(lp206
F0.0
aF0.0
aF0.0
aF0.05000000074505806
aa(lp207
F0.0
aF0.0
aF0.0
aF0.05000000074505806
aa(lp208
F0.0
aF0.0
aF0.0
aF0.05000000074505806
aa(lp209
F0.0
aF0.0
aF0.0
aF0.05000000074505806
aa(lp210
F0.0
aF0.0
aF0.0
aF0.05000000074505806
aa(lp211
F0.0
aF0.0
aF0.0
aF0.05000000074505806
aa(lp212
F0.0
aF0.0
aF0.0
aF0.05000000074505806
aa(lp213
F0.0
aF0.0
aF0.0
aF0.05000000074505806
aa(lp214
F0.0
aF0.0
aF0.0
aF0.05000000074505806
aa(lp215
F0.0
aF0.0
aF0.0
aF0.05000000074505806
aa(lp216
F0.0
aF0.0
aF0.0
aF0.05000000074505806
aa(lp217
F0.0
aF0.0
aF0.0
aF0.05000000074505806
aa(lp218
F0.0
aF0.0
aF0.0
aF0.05000000074505806
aa(lp219
F0.0
aF0.0
aF0.0
aF0.05000000074505806
aa(lp220
F0.0
aF0.0
aF0.0
aF0.05000000074505806
aa(lp221
F0.0
aF0.0
aF0.0
aF0.05000000074505806
aa(lp222
F0.0
aF0.0
aF0.0
aF0.05000000074505806
aa(lp223
F0.0
aF0.0
aF0.0
aF0.05000000074505806
aa(lp224
F0.0
aF0.0
aF0.0
aF0.05000000074505806
aa(lp225
F0.0
aF0.0
aF0.0
aF0.05000000074505806
aa(lp226
F0.0
aF0.0
aF0.0
aF0.05000000074505806
aa(lp227
F0.0
aF0.0
aF0.0
aF0.05000000074505806
aa(lp228
F0.0
aF0.0
aF0.0
aF0.05000000074505806
aa(lp229
F0.0
aF0.0
aF0.0
aF0.05000000074505806
aa(lp230
F0.0
aF0.0
aF0.0
aF0.05000000074505806
aa(lp231
F0.0
aF0.0
aF0.0
aF0.05000000074505806
aa(lp232
F0.0
aF0.0
aF0.0
aF0.05000000074505806
aa(lp233
F0.0
aF0.0
aF0.0
aF0.05000000074505806
aa(lp234
F0.0
aF0.0
aF0.0
aF0.05000000074505806
aa(lp235
F0.0
aF0.0
aF0.0
aF0.05000000074505806
aa(lp236
F0.0
aF0.0
aF0.0
aF0.05000000074505806
aa(lp237
F0.0
aF0.0
aF0.0
aF0.05000000074505806
aa(lp238
F0.0
aF0.0
aF0.0
aF0.05000000074505806
aa(lp239
F0.0
aF0.0
aF0.0
aF0.05000000074505806
aa(lp240
F0.0
aF0.0
aF0.0
aF0.05000000074505806
aa(lp241
F0.0
aF0.0
aF0.0
aF0.05000000074505806
aa(lp242
F0.0
aF0.0
aF0.0
aF0.05000000074505806
aa(lp243
F0.0
aF0.0
aF0.0
aF0.05000000074505806
aa(lp244
F0.0
aF0.0
aF0.0
aF0.05000000074505806
aa(lp245
F0.0
aF0.0
aF0.0
aF0.05000000074505806
aa(lp246
F0.0
aF0.0
aF0.0
aF0.05000000074505806
aa(lp247
F0.0
aF0.0
aF0.0
aF0.05000000074505806
aa(lp248
F0.0
aF0.0
aF0.0
aF0.05000000074505806
aa(lp249
F0.0
aF0.0
aF0.0
aF0.05000000074505806
aa(lp250
F0.0
aF0.0
aF0.0
aF0.05000000074505806
aa(lp251
F0.0
aF0.0
aF0.0
aF0.05000000074505806
aa(lp252
F0.0
aF0.0
aF0.0
aF0.05000000074505806
aa(lp253
F0.0
aF0.0
aF0.0
aF0.05000000074505806
aa(lp254
F0.0
aF0.0
aF0.0
aF0.05000000074505806
aa(lp255
F0.0
aF0.0
aF0.0
aF0.05000000074505806
aa(lp256
F0.0
aF0.0
aF0.0
aF0.05000000074505806
aa(lp257
F0.0
aF0.0
aF0.0
aF0.05000000074505806
aa(lp258
F0.0
aF0.0
aF0.0
aF0.05000000074505806
aa(lp259
F0.0
aF0.0
aF0.0
aF0.05000000074505806
aa(lp260
F0.0
aF0.0
aF0.0
aF0.05000000074505806
aa(lp261
F0.0
aF0.0
aF0.0
aF0.05000000074505806
aa(lp262
F0.0
aF0.0
aF0.0
aF0.05000000074505806
aa(lp263
F0.0
aF0.0
aF0.0
aF0.05000000074505806
aa(lp264
F0.0
aF0.0
aF0.0
aF0.05000000074505806
aa(lp265
F0.0
aF0.0
aF0.0
aF0.05000000074505806
aa(lp266
F0.0
aF0.0
aF0.0
aF0.05000000074505806
aa(lp267
F0.0
aF0.0
aF0.0
aF0.05000000074505806
aa(lp268
F0.0
aF0.0
aF0.0
aF0.05000000074505806
aa(lp269
F0.0
aF0.0
aF0.0
aF0.05000000074505806
aa(lp270
F0.0
aF0.0
aF0.0
aF0.05000000074505806
aa(lp271
F0.0
aF0.0
aF0.0
aF0.05000000074505806
aa(lp272
F0.0
aF0.0
aF0.0
aF0.05000000074505806
aa(lp273
F0.0
aF0.0
aF0.0
aF0.05000000074505806
aa(lp274
F0.0
aF0.0
aF0.0
aF0.05000000074505806
aa(lp275
F0.0
aF0.0
aF0.0
aF0.05000000074505806
aa(lp276
F0.0
aF0.0
aF0.0
aF0.05000000074505806
aa(lp277
F0.0
aF0.0
aF0.0
aF0.05000000074505806
aa(lp278
F0.0
aF0.0
aF0.0
aF0.05000000074505806
aa(lp279
F0.0
aF0.0
aF0.0
aF0.05000000074505806
aa(lp280
F0.0
aF0.0
aF0.0
aF0.05000000074505806
aa(lp281
F0.0
aF0.0
aF0.0
aF0.05000000074505806
aa(lp282
F0.0
aF0.0
aF0.0
aF0.05000000074505806
aa(lp283
F0.0
aF0.0
aF0.0
aF0.05000000074505806
aa(lp284
F0.0
aF0.0
aF0.0
aF0.05000000074505806
aa(lp285
F0.0
aF0.0
aF0.0
aF0.05000000074505806
aa(lp286
F0.0
aF0.0
aF0.0
aF0.05000000074505806
aa(lp287
F0.0
aF0.0
aF0.0
aF0.05000000074505806
aa(lp288
F0.0
aF0.0
aF0.0
aF0.05000000074505806
aa(lp289
F0.0
aF0.0
aF0.0
aF0.05000000074505806
aa(lp290
F0.0
aF0.0
aF0.0
aF0.05000000074505806
aa(lp291
F0.0
aF0.0
aF0.0
aF0.05000000074505806
aa(lp292
F0.0
aF0.0
aF0.0
aF0.05000000074505806
aa(lp293
F0.0
aF0.0
aF0.0
aF0.05000000074505806
aa(lp294
F0.0
aF0.0
aF0.0
aF0.05000000074505806
aa(lp295
F0.0
aF0.0
aF0.0
aF0.05000000074505806
aa(lp296
F0.0
aF0.0
aF0.0
aF0.05000000074505806
aa(lp297
F0.0
aF0.0
aF0.0
aF0.05000000074505806
aa(lp298
F0.0
aF0.0
aF0.0
aF0.05000000074505806
aa(lp299
F0.0
aF0.0
aF0.0
aF0.05000000074505806
aa(lp300
F0.0
aF0.0
aF0.0
aF0.05000000074505806
aa(lp301
F0.0
aF0.0
aF0.0
aF0.05000000074505806
aa(lp302
F0.0
aF0.0
aF0.0
aF0.05000000074505806
aa(lp303
F0.0
aF0.0
aF0.0
aF0.05000000074505806
aa(lp304
F0.0
aF0.0
aF0.0
aF0.05000000074505806
aa(lp305
F0.0
aF0.0
aF0.0
aF0.05000000074505806
aa(lp306
F0.0
aF0.0
aF0.0
aF0.05000000074505806
aa(lp307
F0.0
aF0.0
aF0.0
aF0.05000000074505806
aa(lp308
F0.0
aF0.0
aF0.0
aF0.05000000074505806
aa(lp309
F0.0
aF0.0
aF0.0
aF0.05000000074505806
aa(lp310
F0.0
aF0.0
aF0.0
aF0.05000000074505806
aa(lp311
F0.0
aF0.0
aF0.0
aF0.05000000074505806
aa(lp312
F0.0
aF0.0
aF0.0
aF0.05000000074505806
aa(lp313
F0.0
aF0.0
aF0.0
aF0.05000000074505806
aa(lp314
F0.0
aF0.0
aF0.0
aF0.05000000074505806
aa(lp315
F0.0
aF0.0
aF0.0
aF0.05000000074505806
aa(lp316
F0.0
aF0.0
aF0.0
aF0.05000000074505806
aa(lp317
F0.0
aF0.0
aF0.0
aF0.05000000074505806
aa(lp318
F0.0
aF0.0
aF0.0
aF0.05000000074505806
aa(lp319
F0.0
aF0.0
aF0.0
aF0.05000000074505806
aa(lp320
F0.0
aF0.0
aF0.0
aF0.05000000074505806
aa(lp321
F0.0
aF0.0
aF0.0
aF0.05000000074505806
aa(lp322
F0.0
aF0.0
aF0.0
aF0.05000000074505806
aa(lp323
F0.0
aF0.0
aF0.0
aF0.05000000074505806
aa(lp324
F0.0
aF0.0
aF0.0
aF0.05000000074505806
aa(lp325
F0.0
aF0.0
aF0.0
aF0.05000000074505806
aa(lp326
F0.0
aF0.0
aF0.0
aF0.05000000074505806
aa(lp327
F0.0
aF0.0
aF0.0
aF0.05000000074505806
aa(lp328
F0.0
aF0.0
aF0.0
aF0.05000000074505806
aa(lp329
F0.0
aF0.0
aF0.0
aF0.05000000074505806
aa(lp330
F0.0
aF0.0
aF0.0
aF0.05000000074505806
aa(lp331
F0.0
aF0.0
aF0.0
aF0.05000000074505806
aa(lp332
F0.0
aF0.0
aF0.0
aF0.05000000074505806
aa(lp333
F0.0
aF0.0
aF0.0
aF0.05000000074505806
aa(lp334
F0.0
aF0.0
aF0.0
aF0.05000000074505806
aa(lp335
F0.0
aF0.0
aF0.0
aF0.05000000074505806
aa(lp336
F0.0
aF0.0
aF0.0
aF0.05000000074505806
aa(lp337
F0.0
aF0.0
aF0.0
aF0.05000000074505806
aa(lp338
F0.0
aF0.0
aF0.0
aF0.05000000074505806
aa(lp339
F0.0
aF0.0
aF0.0
aF0.05000000074505806
aa(lp340
F0.0
aF0.0
aF0.0
aF0.05000000074505806
aa(lp341
F0.0
aF0.0
aF0.0
aF0.05000000074505806
aa(lp342
F0.0
aF0.0
aF0.0
aF0.05000000074505806
aa(lp343
F0.0
aF0.0
aF0.0
aF0.05000000074505806
aa(lp344
F0.0
aF0.0
aF0.0
aF0.05000000074505806
aa(lp345
F0.0
aF0.0
aF0.0
aF0.05000000074505806
aa(lp346
F0.0
aF0.0
aF0.0
aF0.05000000074505806
aa(lp347
F0.0
aF0.0
aF0.0
aF0.05000000074505806
aa(lp348
F0.0
aF0.0
aF0.0
aF0.05000000074505806
aa(lp349
F0.0
aF0.0
aF0.0
aF0.05000000074505806
aa(lp350
F0.0
aF0.0
aF0.0
aF0.05000000074505806
aa(lp351
F0.0
aF0.0
aF0.0
aF0.05000000074505806
aa(lp352
F0.0
aF0.0
aF0.0
aF0.05000000074505806
aa(lp353
F0.0
aF0.0
aF0.0
aF0.05000000074505806
aa(lp354
F0.0
aF0.0
aF0.0
aF0.05000000074505806
aa(lp355
F0.0
aF0.0
aF0.0
aF0.05000000074505806
aa(lp356
F0.0
aF0.0
aF0.0
aF0.05000000074505806
aa(lp357
F0.0
aF0.0
aF0.0
aF0.05000000074505806
aa(lp358
F0.0
aF0.0
aF0.0
aF0.05000000074505806
aa(lp359
F0.0
aF0.0
aF0.0
aF0.05000000074505806
aa(lp360
F0.0
aF0.0
aF0.0
aF0.05000000074505806
aa(lp361
F0.0
aF0.0
aF0.0
aF0.05000000074505806
aa(lp362
F0.0
aF0.0
aF0.0
aF0.05000000074505806
aa(lp363
F0.0
aF0.0
aF0.0
aF0.05000000074505806
aa(lp364
F0.0
aF0.0
aF0.0
aF0.05000000074505806
aa(lp365
F0.0
aF0.0
aF0.0
aF0.05000000074505806
aa(lp366
F0.0
aF0.0
aF0.0
aF0.05000000074505806
aa(lp367
F0.0
aF0.0
aF0.0
aF0.05000000074505806
aa(lp368
F0.0
aF0.0
aF0.0
aF0.05000000074505806
aa(lp369
F0.0
aF0.0
aF0.0
aF0.05000000074505806
aa(lp370
F0.0
aF0.0
aF0.0
aF0.05000000074505806
aa(lp371
F0.0
aF0.0
aF0.0
aF0.05000000074505806
aa(lp372
F0.0
aF0.0
aF0.0
aF0.05000000074505806
aa(lp373
F0.0
aF0.0
aF0.0
aF0.05000000074505806
aa(lp374
F0.0
aF0.0
aF0.0
aF0.05000000074505806
aa(lp375
F0.0
aF0.0
aF0.0
aF0.05000000074505806
aa(lp376
F0.0
aF0.0
aF0.0
aF0.05000000074505806
aa(lp377
F0.0
aF0.0
aF0.0
aF0.05000000074505806
aa(lp378
F0.0
aF0.0
aF0.0
aF0.05000000074505806
aa(lp379
F0.0
aF0.0
aF0.0
aF0.05000000074505806
aa(lp380
F0.0
aF0.0
aF0.0
aF0.05000000074505806
aa(lp381
F0.0
aF0.0
aF0.0
aF0.05000000074505806
aa(lp382
F0.0
aF0.0
aF0.0
aF0.05000000074505806
aa(lp383
F0.0
aF0.0
aF0.0
aF0.05000000074505806
aa(lp384
F0.0
aF0.0
aF0.0
aF0.05000000074505806
aa(lp385
F0.0
aF0.0
aF0.0
aF0.05000000074505806
aa(lp386
F0.0
aF0.0
aF0.0
aF0.05000000074505806
aa(lp387
F0.0
aF0.0
aF0.0
aF0.05000000074505806
aa(lp388
F0.0
aF0.0
aF0.0
aF0.05000000074505806
aa(lp389
F0.0
aF0.0
aF0.0
aF0.05000000074505806
aa(lp390
F0.0
aF0.0
aF0.0
aF0.05000000074505806
aa(lp391
F0.0
aF0.0
aF0.0
aF0.05000000074505806
aa(lp392
F0.0
aF0.0
aF0.0
aF0.05000000074505806
aa(lp393
F0.0
aF0.0
aF0.0
aF0.05000000074505806
aa(lp394
F0.0
aF0.0
aF0.0
aF0.05000000074505806
aa(lp395
F0.0
aF0.0
aF0.0
aF0.05000000074505806
aa(lp396
F0.0
aF0.0
aF0.0
aF0.05000000074505806
aa(lp397
F0.0
aF0.0
aF0.0
aF0.05000000074505806
aa(lp398
F0.0
aF0.0
aF0.0
aF0.05000000074505806
aa(lp399
F0.0
aF0.0
aF0.0
aF0.05000000074505806
aa(lp400
F0.0
aF0.0
aF0.0
aF0.05000000074505806
aa(lp401
F0.0
aF0.0
aF0.0
aF0.05000000074505806
aa(lp402
F0.0
aF0.0
aF0.0
aF0.05000000074505806
aa(lp403
F0.0
aF0.0
aF0.0
aF0.05000000074505806
aa(lp404
F0.0
aF0.0
aF0.02499999850988388
aF0.05000000074505806
aa(lp405
F0.0
aF0.0
aF0.1249999925494194
aF0.05000000074505806
aa(lp406
F0.0
aF0.0
aF0.2499999850988388
aF0.05000000074505806
aa(lp407
F0.0
aF0.0
aF0.44999998807907104
aF0.05000000074505806
aa(lp408
F0.0
aF0.0
aF0.5249999761581421
aF0.05000000074505806
aa(lp409
F0.0
aF0.0
aF0.6499999761581421
aF0.05000000074505806
aa(lp410
F0.0
aF0.0
aF0.75
aF0.05000000074505806
aa(lp411
F0.0
aF0.0
aF0.75
aF0.05000000074505806
aa(lp412
F0.0
aF0.0
aF0.875
aF0.05000000074505806
aa(lp413
F0.0
aF0.0
aF1.024999976158142
aF0.05000000074505806
aa(lp414
F0.0
aF0.0
aF1.225000023841858
aF0.05000000074505806
aa(lp415
F0.0
aF0.0
aF1.3000000715255737
aF0.05000000074505806
aa(lp416
F0.0
aF0.0
aF1.4500000476837158
aF0.05000000074505806
aa(lp417
F0.0
aF0.0
aF1.5
aF0.05000000074505806
aa(lp418
F0.0
aF0.0
aF1.625
aF0.05000000074505806
aa(lp419
F0.0
aF0.0
aF1.649999976158142
aF0.05000000074505806
aa(lp420
F0.0
aF0.0
aF1.774999976158142
aF0.05000000074505806
aa(lp421
F0.0
aF0.0
aF1.850000023841858
aF0.05000000074505806
aa(lp422
F0.0
aF0.0
aF1.9250000715255737
aF0.05000000074505806
aa(lp423
F0.0
aF0.0
aF2.0250000953674316
aF0.05000000074505806
aa(lp424
F0.0
aF0.0
aF2.0500001907348633
aF0.05000000074505806
aa(lp425
F0.0
aF0.0
aF2.1500003337860107
aF0.05000000074505806
aa(lp426
F0.0
aF0.0
aF2.1750004291534424
aF0.05000000074505806
aa(lp427
F0.0
aF0.0
aF2.2250003814697266
aF0.05000000074505806
aa(lp428
F0.0
aF0.0
aF2.2750003337860107
aF0.05000000074505806
aa(lp429
F0.0
aF0.0
aF2.2750003337860107
aF0.05000000074505806
aa(lp430
F0.0
aF0.0
aF2.2750003337860107
aF0.05000000074505806
aa(lp431
F0.0
aF0.0
aF2.2750003337860107
aF0.05000000074505806
aa(lp432
F0.0
aF0.0
aF2.2750003337860107
aF0.05000000074505806
aa(lp433
F0.0
aF0.0
aF2.2750003337860107
aF0.05000000074505806
aa(lp434
F0.0
aF0.0
aF2.2750003337860107
aF0.05000000074505806
aa(lp435
F0.0
aF0.0
aF2.2750003337860107
aF0.05000000074505806
aa(lp436
F0.0
aF0.0
aF2.2750003337860107
aF0.05000000074505806
aa(lp437
F0.0
aF0.0
aF2.2750003337860107
aF0.05000000074505806
aa(lp438
F0.0
aF0.0
aF2.2750003337860107
aF0.05000000074505806
aa(lp439
F0.0
aF0.0
aF2.2750003337860107
aF0.05000000074505806
aa(lp440
F0.0
aF0.0
aF2.2750003337860107
aF0.05000000074505806
aa(lp441
F0.0
aF0.0
aF2.2750003337860107
aF0.05000000074505806
aa(lp442
F0.0
aF0.0
aF2.2750003337860107
aF0.05000000074505806
aa(lp443
F0.0
aF0.0
aF2.2750003337860107
aF0.05000000074505806
aa(lp444
F0.0
aF0.0
aF2.2750003337860107
aF0.05000000074505806
aa(lp445
F0.0
aF0.0
aF2.2750003337860107
aF0.05000000074505806
aa(lp446
F0.0
aF0.0
aF2.2750003337860107
aF0.05000000074505806
aa(lp447
F0.0
aF0.0
aF2.2750003337860107
aF0.05000000074505806
aa(lp448
F0.0
aF0.0
aF2.2750003337860107
aF0.05000000074505806
aa(lp449
F0.0
aF0.0
aF2.2750003337860107
aF0.05000000074505806
aa(lp450
F0.0
aF0.0
aF2.2750003337860107
aF0.05000000074505806
aa(lp451
F0.0
aF0.0
aF2.2750003337860107
aF0.05000000074505806
aa(lp452
F0.0
aF0.0
aF2.2750003337860107
aF0.05000000074505806
aa(lp453
F0.0
aF0.0
aF2.2750003337860107
aF0.05000000074505806
aa(lp454
F0.0
aF0.0
aF2.2750003337860107
aF0.05000000074505806
aa(lp455
F0.0
aF0.0
aF2.2750003337860107
aF0.05000000074505806
aa(lp456
F0.0
aF0.0
aF2.450000286102295
aF0.05000000074505806
aa(lp457
F0.0
aF0.0
aF2.6500003337860107
aF0.05000000074505806
aa(lp458
F0.0
aF0.0
aF2.7250003814697266
aF0.05000000074505806
aa(lp459
F0.0
aF0.0
aF2.9000003337860107
aF0.05000000074505806
aa(lp460
F0.0
aF0.0
aF2.9250004291534424
aF0.05000000074505806
aa(lp461
F0.0
aF0.0
aF3.075000524520874
aF0.05000000074505806
aa(lp462
F0.0
aF0.0
aF3.250000476837158
aF0.05000000074505806
aa(lp463
F0.0
aF0.0
aF3.3000004291534424
aF0.05000000074505806
aa(lp464
F0.0
aF0.0
aF3.500000476837158
aF0.05000000074505806
aa(lp465
F0.0
aF0.0
aF3.6750004291534424
aF0.05000000074505806
aa(lp466
F0.0
aF0.0
aF3.950000524520874
aF0.05000000074505806
aa(lp467
F0.0
aF0.0
aF4.000000476837158
aF0.05000000074505806
aa(lp468
F0.0
aF0.0
aF4.1750006675720215
aF0.05000000074505806
aa(lp469
F0.0
aF0.0
aF4.250000476837158
aF0.05000000074505806
aa(lp470
F0.0
aF0.0
aF4.375000476837158
aF0.05000000074505806
aa(lp471
F0.0
aF0.0
aF4.40000057220459
aF0.05000000074505806
aa(lp472
F0.0
aF0.0
aF4.52500057220459
aF0.05000000074505806
aa(lp473
F0.0
aF0.0
aF4.5500006675720215
aF0.05000000074505806
aa(lp474
F0.0
aF0.0
aF4.625000476837158
aF0.05000000074505806
aa(lp475
F0.0
aF0.0
aF4.725000381469727
aF0.05000000074505806
aa(lp476
F0.0
aF0.0
aF4.77500057220459
aF0.05000000074505806
aa(lp477
F0.0
aF0.0
aF4.875000476837158
aF0.05000000074505806
aa(lp478
F0.0
aF0.0
aF5.02500057220459
aF0.05000000074505806
aa(lp479
F0.0
aF0.0
aF5.100000381469727
aF0.05000000074505806
aa(lp480
F0.0
aF0.0
aF5.200000286102295
aF0.05000000074505806
aa(lp481
F0.0
aF0.0
aF5.225000381469727
aF0.05000000074505806
aa(lp482
F0.0
aF0.0
aF5.225000381469727
aF0.05000000074505806
aa(lp483
F0.0
aF0.0
aF5.225000381469727
aF0.05000000074505806
aa(lp484
F0.0
aF0.0
aF5.225000381469727
aF0.05000000074505806
aa(lp485
F0.0
aF0.0
aF5.200000286102295
aF0.05000000074505806
aa(lp486
F0.0
aF0.0
aF5.200000286102295
aF0.05000000074505806
aa(lp487
F0.0
aF0.0
aF5.200000286102295
aF0.05000000074505806
aa(lp488
F0.0
aF0.0
aF5.200000286102295
aF0.05000000074505806
aa(lp489
F0.0
aF0.0
aF5.200000286102295
aF0.05000000074505806
aa(lp490
F0.0
aF0.0
aF5.200000286102295
aF0.05000000074505806
aa(lp491
F0.0
aF0.0
aF5.200000286102295
aF0.05000000074505806
aa(lp492
F0.0
aF0.0
aF5.200000286102295
aF0.05000000074505806
aa(lp493
F0.0
aF0.0
aF5.200000286102295
aF0.05000000074505806
aa(lp494
F0.0
aF0.0
aF5.200000286102295
aF0.05000000074505806
aa(lp495
F0.0
aF0.0
aF5.200000286102295
aF0.05000000074505806
aa(lp496
F0.0
aF0.0
aF5.200000286102295
aF0.05000000074505806
aa(lp497
F0.0
aF0.0
aF5.200000286102295
aF0.05000000074505806
aa(lp498
F0.0
aF0.0
aF5.200000286102295
aF0.05000000074505806
aa(lp499
F0.0
aF0.0
aF5.200000286102295
aF0.05000000074505806
aa(lp500
F0.0
aF0.0
aF5.200000286102295
aF0.05000000074505806
aa(lp501
F0.0
aF0.0
aF5.200000286102295
aF0.05000000074505806
aa(lp502
F0.0
aF0.0
aF5.200000286102295
aF0.05000000074505806
aa(lp503
F0.0
aF0.0
aF5.200000286102295
aF0.05000000074505806
aa(lp504
F0.0
aF0.0
aF5.200000286102295
aF0.05000000074505806
aa(lp505
F0.0
aF0.0
aF5.200000286102295
aF0.05000000074505806
aa(lp506
F0.0
aF0.0
aF5.200000286102295
aF0.05000000074505806
aa(lp507
F0.0
aF0.0
aF5.200000286102295
aF0.05000000074505806
aa(lp508
F0.0
aF0.0
aF5.200000286102295
aF0.05000000074505806
aa(lp509
F0.0
aF0.0
aF5.200000286102295
aF0.05000000074505806
aa(lp510
F0.0
aF0.0
aF5.200000286102295
aF0.05000000074505806
aa(lp511
F0.0
aF0.0
aF5.200000286102295
aF0.05000000074505806
aa(lp512
F0.0
aF0.0
aF5.200000286102295
aF0.05000000074505806
aa(lp513
F0.0
aF0.0
aF5.200000286102295
aF0.05000000074505806
aa(lp514
F0.0
aF0.0
aF5.200000286102295
aF0.05000000074505806
aa(lp515
F0.0
aF0.0
aF5.200000286102295
aF0.05000000074505806
aa(lp516
F0.0
aF0.0
aF5.200000286102295
aF0.05000000074505806
aa(lp517
F0.0
aF0.0
aF5.200000286102295
aF0.05000000074505806
aa(lp518
F0.0
aF0.0
aF5.200000286102295
aF0.05000000074505806
aa(lp519
F0.0
aF0.0
aF5.200000286102295
aF0.05000000074505806
aa(lp520
F0.0
aF0.0
aF5.200000286102295
aF0.05000000074505806
aa(lp521
F0.0
aF0.0
aF5.200000286102295
aF0.05000000074505806
aa(lp522
F0.0
aF0.0
aF5.200000286102295
aF0.05000000074505806
aa(lp523
F0.0
aF0.0
aF5.200000286102295
aF0.05000000074505806
aa(lp524
F0.0
aF0.0
aF5.200000286102295
aF0.05000000074505806
aa(lp525
F0.0
aF0.0
aF5.200000286102295
aF0.05000000074505806
aa(lp526
F0.0
aF0.0
aF5.200000286102295
aF0.05000000074505806
aa(lp527
F0.0
aF0.0
aF5.200000286102295
aF0.05000000074505806
aa(lp528
F0.0
aF0.0
aF5.200000286102295
aF0.05000000074505806
aa(lp529
F0.0
aF0.0
aF5.200000286102295
aF0.05000000074505806
aa(lp530
F0.0
aF0.0
aF5.200000286102295
aF0.05000000074505806
aa(lp531
F0.0
aF0.0
aF5.200000286102295
aF0.05000000074505806
aa(lp532
F0.0
aF0.0
aF5.200000286102295
aF0.05000000074505806
aa(lp533
F0.0
aF0.0
aF5.200000286102295
aF0.05000000074505806
aa(lp534
F0.0
aF0.0
aF5.200000286102295
aF0.05000000074505806
aa(lp535
F0.0
aF0.0
aF5.200000286102295
aF0.05000000074505806
aa(lp536
F0.0
aF0.0
aF5.200000286102295
aF0.05000000074505806
aa(lp537
F0.0
aF0.0
aF5.200000286102295
aF0.05000000074505806
aa(lp538
F0.0
aF0.0
aF5.200000286102295
aF0.05000000074505806
aa(lp539
F0.0
aF0.0
aF5.200000286102295
aF0.05000000074505806
aa(lp540
F0.0
aF0.0
aF5.200000286102295
aF0.05000000074505806
aa(lp541
F0.0
aF0.0
aF5.200000286102295
aF0.05000000074505806
aa(lp542
F0.0
aF0.0
aF5.200000286102295
aF0.05000000074505806
aa(lp543
F0.0
aF0.0
aF5.200000286102295
aF0.05000000074505806
aa(lp544
F0.0
aF0.0
aF5.200000286102295
aF0.05000000074505806
aa(lp545
F0.0
aF0.0
aF5.200000286102295
aF0.05000000074505806
aa(lp546
F0.0
aF0.0
aF5.200000286102295
aF0.05000000074505806
aa(lp547
F0.0
aF0.0
aF5.200000286102295
aF0.05000000074505806
aa(lp548
F0.0
aF0.0
aF5.200000286102295
aF0.05000000074505806
aa(lp549
F0.0
aF0.0
aF5.200000286102295
aF0.05000000074505806
aa(lp550
F0.0
aF0.0
aF5.200000286102295
aF0.05000000074505806
aa(lp551
F0.0
aF0.0
aF5.200000286102295
aF0.05000000074505806
aa(lp552
F0.0
aF0.0
aF5.200000286102295
aF0.05000000074505806
aa(lp553
F0.0
aF0.0
aF5.200000286102295
aF0.05000000074505806
aa(lp554
F0.0
aF0.0
aF5.200000286102295
aF0.05000000074505806
aa(lp555
F0.0
aF0.0
aF5.200000286102295
aF0.05000000074505806
aa(lp556
F0.0
aF0.0
aF5.200000286102295
aF0.05000000074505806
aa(lp557
F0.0
aF0.0
aF5.200000286102295
aF0.05000000074505806
aa(lp558
F0.0
aF0.0
aF5.200000286102295
aF0.05000000074505806
aa(lp559
F0.0
aF0.0
aF5.200000286102295
aF0.05000000074505806
aa(lp560
F0.0
aF0.0
aF5.200000286102295
aF0.05000000074505806
aa(lp561
F0.0
aF0.0
aF5.200000286102295
aF0.05000000074505806
aa(lp562
F0.0
aF0.0
aF5.200000286102295
aF0.05000000074505806
aa(lp563
F0.0
aF0.0
aF5.200000286102295
aF0.05000000074505806
aa(lp564
F0.0
aF0.0
aF5.200000286102295
aF0.05000000074505806
aa(lp565
F0.0
aF0.0
aF5.200000286102295
aF0.05000000074505806
aa(lp566
F0.0
aF0.0
aF5.200000286102295
aF0.05000000074505806
aa(lp567
F0.0
aF0.0
aF5.200000286102295
aF0.05000000074505806
aa(lp568
F0.0
aF0.0
aF5.200000286102295
aF0.05000000074505806
aa(lp569
F0.0
aF0.0
aF5.200000286102295
aF0.05000000074505806
aa(lp570
F0.0
aF0.0
aF5.200000286102295
aF0.05000000074505806
aa(lp571
F0.0
aF0.0
aF5.200000286102295
aF0.05000000074505806
aa(lp572
F0.0
aF0.0
aF5.200000286102295
aF0.05000000074505806
aa(lp573
F0.0
aF0.0
aF5.200000286102295
aF0.05000000074505806
aa(lp574
F0.0
aF0.0
aF5.200000286102295
aF0.05000000074505806
aa(lp575
F0.0
aF0.0
aF5.200000286102295
aF0.05000000074505806
aa(lp576
F0.0
aF0.0
aF5.200000286102295
aF0.05000000074505806
aa(lp577
F0.0
aF0.0
aF5.200000286102295
aF0.05000000074505806
aa(lp578
F0.0
aF0.0
aF5.200000286102295
aF0.05000000074505806
aa(lp579
F0.0
aF0.0
aF5.200000286102295
aF0.05000000074505806
aa(lp580
F0.0
aF0.0
aF5.200000286102295
aF0.05000000074505806
aa(lp581
F0.0
aF0.0
aF5.200000286102295
aF0.05000000074505806
aa(lp582
F0.0
aF0.0
aF5.200000286102295
aF0.05000000074505806
aa(lp583
F0.0
aF0.0
aF5.200000286102295
aF0.05000000074505806
aa(lp584
F0.0
aF0.0
aF5.200000286102295
aF0.05000000074505806
aa(lp585
F0.0
aF0.0
aF5.200000286102295
aF0.05000000074505806
aa(lp586
F0.0
aF0.0
aF5.200000286102295
aF0.05000000074505806
aa(lp587
F0.0
aF0.0
aF5.200000286102295
aF0.05000000074505806
aa(lp588
F0.0
aF0.0
aF5.200000286102295
aF0.05000000074505806
aa(lp589
F0.0
aF0.0
aF5.200000286102295
aF0.05000000074505806
aa(lp590
F0.0
aF0.0
aF5.200000286102295
aF0.05000000074505806
aa(lp591
F0.0
aF0.0
aF5.200000286102295
aF0.05000000074505806
aa(lp592
F0.0
aF0.0
aF5.200000286102295
aF0.05000000074505806
aa(lp593
F0.0
aF0.0
aF5.200000286102295
aF0.05000000074505806
aa(lp594
F0.0
aF0.0
aF5.200000286102295
aF0.05000000074505806
aa(lp595
F0.0
aF0.0
aF5.200000286102295
aF0.05000000074505806
aa(lp596
F0.0
aF0.0
aF5.200000286102295
aF0.05000000074505806
aa(lp597
F0.0
aF0.0
aF5.200000286102295
aF0.05000000074505806
aa(lp598
F0.0
aF0.0
aF5.200000286102295
aF0.05000000074505806
aa(lp599
F0.0
aF0.0
aF5.200000286102295
aF0.05000000074505806
aa(lp600
F0.0
aF0.0
aF5.200000286102295
aF0.05000000074505806
aa(lp601
F0.0
aF0.0
aF5.200000286102295
aF0.05000000074505806
aa(lp602
F0.0
aF0.0
aF5.200000286102295
aF0.05000000074505806
aa(lp603
F0.0
aF0.0
aF5.200000286102295
aF0.05000000074505806
aa(lp604
F0.0
aF0.0
aF5.200000286102295
aF0.05000000074505806
aa(lp605
F0.0
aF0.0
aF5.200000286102295
aF0.05000000074505806
aa(lp606
F0.0
aF0.0
aF5.200000286102295
aF0.05000000074505806
aa(lp607
F0.0
aF0.0
aF5.200000286102295
aF0.05000000074505806
aa(lp608
F0.0
aF0.0
aF5.200000286102295
aF0.05000000074505806
aa(lp609
F0.0
aF0.0
aF5.200000286102295
aF0.05000000074505806
aa(lp610
F0.0
aF0.0
aF5.200000286102295
aF0.05000000074505806
aa(lp611
F0.0
aF0.0
aF5.200000286102295
aF0.05000000074505806
aa(lp612
F0.0
aF0.0
aF5.200000286102295
aF0.05000000074505806
aa(lp613
F0.0
aF0.0
aF5.200000286102295
aF0.05000000074505806
aa(lp614
F0.0
aF0.0
aF5.200000286102295
aF0.05000000074505806
aa(lp615
F0.0
aF0.0
aF5.200000286102295
aF0.05000000074505806
aa(lp616
F0.0
aF0.0
aF5.200000286102295
aF0.05000000074505806
aa(lp617
F0.0
aF0.0
aF5.200000286102295
aF0.05000000074505806
aa(lp618
F0.0
aF0.0
aF5.200000286102295
aF0.05000000074505806
aa(lp619
F0.0
aF0.0
aF5.200000286102295
aF0.05000000074505806
aa(lp620
F0.0
aF0.0
aF5.200000286102295
aF0.05000000074505806
aa(lp621
F0.0
aF0.0
aF5.200000286102295
aF0.05000000074505806
aa(lp622
F0.0
aF0.0
aF5.200000286102295
aF0.05000000074505806
aa(lp623
F0.0
aF0.0
aF5.200000286102295
aF0.05000000074505806
aa(lp624
F0.0
aF0.0
aF5.200000286102295
aF0.05000000074505806
aa(lp625
F0.0
aF0.0
aF5.200000286102295
aF0.05000000074505806
aa(lp626
F0.0
aF0.0
aF5.200000286102295
aF0.05000000074505806
aa(lp627
F0.0
aF0.0
aF5.200000286102295
aF0.05000000074505806
aa(lp628
F0.0
aF0.0
aF5.200000286102295
aF0.05000000074505806
aa(lp629
F0.0
aF0.0
aF5.200000286102295
aF0.05000000074505806
aa(lp630
F0.0
aF0.0
aF5.200000286102295
aF0.05000000074505806
aa(lp631
F0.0
aF0.0
aF5.200000286102295
aF0.05000000074505806
aa(lp632
F0.0
aF0.0
aF5.200000286102295
aF0.05000000074505806
aa(lp633
F0.0
aF0.0
aF5.200000286102295
aF0.05000000074505806
aa(lp634
F0.0
aF0.0
aF5.200000286102295
aF0.05000000074505806
aa(lp635
F0.0
aF0.0
aF5.300000190734863
aF0.05000000074505806
aa(lp636
F0.0
aF0.0
aF5.5
aF0.05000000074505806
aa(lp637
F0.0
aF0.0
aF5.799999713897705
aF0.05000000074505806
aa(lp638
F0.0
aF0.0
aF5.949999809265137
aF0.05000000074505806
aa(lp639
F0.0
aF0.0
aF6.299999713897705
aF0.05000000074505806
aa(lp640
F0.0
aF0.0
aF6.399999618530273
aF0.05000000074505806
aa(lp641
F0.0
aF0.0
aF6.774999618530273
aF0.05000000074505806
aa(lp642
F0.0
aF0.0
aF6.949999809265137
aF0.05000000074505806
aa(lp643
F0.0
aF0.0
aF7.174999713897705
aF0.05000000074505806
aa(lp644
F0.0
aF0.0
aF7.424999713897705
aF0.05000000074505806
aa(lp645
F0.0
aF0.0
aF7.524999618530273
aF0.05000000074505806
aa(lp646
F0.0
aF0.0
aF7.9499993324279785
aF0.05000000074505806
aa(lp647
F0.0
aF0.0
aF8.07499885559082
aF0.05000000074505806
aa(lp648
F0.0
aF0.0
aF8.374998092651367
aF0.05000000074505806
aa(lp649
F0.0
aF0.0
aF8.39999771118164
aF0.05000000074505806
aa(lp650
F0.0
aF0.0
aF8.67499828338623
aF0.05000000074505806
aa(lp651
F0.0
aF0.0
aF8.699997901916504
aF0.05000000074505806
aa(lp652
F0.0
aF0.0
aF8.92499828338623
aF0.05000000074505806
aa(lp653
F0.0
aF0.0
aF8.974998474121094
aF0.05000000074505806
aa(lp654
F0.0
aF0.0
aF9.074997901916504
aF0.05000000074505806
aa(lp655
F0.0
aF0.0
aF9.14999771118164
aF0.05000000074505806
aa(lp656
F0.0
aF0.0
aF9.199997901916504
aF0.05000000074505806
aa(lp657
F0.0
aF0.0
aF9.249998092651367
aF0.05000000074505806
aa(lp658
F0.0
aF0.0
aF9.29999828338623
aF0.05000000074505806
aa(lp659
F0.0
aF0.0
aF9.324997901916504
aF0.05000000074505806
aa(lp660
F0.0
aF0.0
aF9.349997520446777
aF0.05000000074505806
aa(lp661
F0.0
aF0.0
aF9.39999771118164
aF0.05000000074505806
aa(lp662
F0.0
aF0.0
aF9.39999771118164
aF0.05000000074505806
aa(lp663
F0.0
aF0.0
aF9.424997329711914
aF0.05000000074505806
aa(lp664
F0.0
aF0.0
aF9.424997329711914
aF0.05000000074505806
aa(lp665
F0.0
aF0.0
aF9.424997329711914
aF0.05000000074505806
aa(lp666
F0.0
aF0.0
aF9.424997329711914
aF0.05000000074505806
aa(lp667
F0.0
aF0.0
aF9.424997329711914
aF0.05000000074505806
aa(lp668
F0.0
aF0.0
aF9.424997329711914
aF0.05000000074505806
aa(lp669
F0.0
aF0.0
aF9.424997329711914
aF0.05000000074505806
aa(lp670
F0.0
aF0.0
aF9.424997329711914
aF0.05000000074505806
aa(lp671
F0.0
aF0.0
aF9.424997329711914
aF0.05000000074505806
aa(lp672
F0.0
aF0.0
aF9.424997329711914
aF0.05000000074505806
aa(lp673
F0.0
aF0.0
aF9.424997329711914
aF0.05000000074505806
aa(lp674
F0.0
aF0.0
aF9.424997329711914
aF0.05000000074505806
aa(lp675
F0.0
aF0.0
aF9.424997329711914
aF0.05000000074505806
aa(lp676
F0.0
aF0.0
aF9.424997329711914
aF0.05000000074505806
aa(lp677
F0.0
aF0.0
aF9.424997329711914
aF0.05000000074505806
aa(lp678
F0.0
aF0.0
aF9.424997329711914
aF0.05000000074505806
aa(lp679
F0.0
aF0.0
aF9.424997329711914
aF0.05000000074505806
aa(lp680
F0.0
aF0.0
aF9.424997329711914
aF0.05000000074505806
aa(lp681
F0.0
aF0.0
aF9.424997329711914
aF0.05000000074505806
aa(lp682
F0.0
aF0.0
aF9.424997329711914
aF0.05000000074505806
aa(lp683
F0.0
aF0.0
aF9.424997329711914
aF0.05000000074505806
aa(lp684
F0.0
aF0.0
aF9.424997329711914
aF0.05000000074505806
aa(lp685
F0.0
aF0.0
aF9.424997329711914
aF0.05000000074505806
aa(lp686
F0.0
aF0.0
aF9.424997329711914
aF0.05000000074505806
aa(lp687
F0.0
aF0.0
aF9.424997329711914
aF0.05000000074505806
aa(lp688
F0.0
aF0.0
aF9.424997329711914
aF0.05000000074505806
aa(lp689
F0.0
aF0.0
aF9.424997329711914
aF0.05000000074505806
aa(lp690
F0.0
aF0.0
aF9.424997329711914
aF0.05000000074505806
aa(lp691
F0.0
aF0.0
aF9.424997329711914
aF0.05000000074505806
aa(lp692
F0.0
aF0.0
aF9.424997329711914
aF0.05000000074505806
aa(lp693
F0.0
aF0.0
aF9.424997329711914
aF0.05000000074505806
aa(lp694
F0.0
aF0.0
aF9.424997329711914
aF0.05000000074505806
aa(lp695
F0.0
aF0.0
aF9.424997329711914
aF0.05000000074505806
aa(lp696
F0.0
aF0.0
aF9.424997329711914
aF0.05000000074505806
aa(lp697
F0.0
aF0.0
aF9.424997329711914
aF0.05000000074505806
aa(lp698
F0.0
aF0.0
aF9.424997329711914
aF0.05000000074505806
aa(lp699
F0.0
aF0.0
aF9.424997329711914
aF0.05000000074505806
aa(lp700
F0.0
aF0.0
aF9.424997329711914
aF0.05000000074505806
aa(lp701
F0.0
aF0.0
aF9.424997329711914
aF0.05000000074505806
aa(lp702
F0.0
aF0.0
aF9.424997329711914
aF0.05000000074505806
aa(lp703
F0.0
aF0.0
aF9.424997329711914
aF0.05000000074505806
aa(lp704
F0.0
aF0.0
aF9.39999771118164
aF0.05000000074505806
aa(lp705
F0.0
aF0.0
aF9.349997520446777
aF0.05000000074505806
aa(lp706
F0.0
aF0.0
aF9.324997901916504
aF0.05000000074505806
aa(lp707
F0.0
aF0.0
aF9.29999828338623
aF0.05000000074505806
aa(lp708
F0.0
aF0.0
aF9.249998092651367
aF0.05000000074505806
aa(lp709
F0.0
aF0.0
aF9.249998092651367
aF0.05000000074505806
aa(lp710
F0.0
aF0.0
aF9.14999771118164
aF0.05000000074505806
aa(lp711
F0.0
aF0.0
aF9.124998092651367
aF0.05000000074505806
aa(lp712
F0.0
aF0.0
aF9.124998092651367
aF0.05000000074505806
aa(lp713
F0.0
aF0.0
aF9.02499771118164
aF0.05000000074505806
aa(lp714
F0.0
aF0.0
aF8.874998092651367
aF0.05000000074505806
aa(lp715
F0.0
aF0.0
aF8.67499828338623
aF0.05000000074505806
aa(lp716
F0.0
aF0.0
aF8.599998474121094
aF0.05000000074505806
aa(lp717
F0.0
aF0.0
aF8.374998092651367
aF0.05000000074505806
aa(lp718
F0.0
aF0.0
aF8.27499771118164
aF0.05000000074505806
aa(lp719
F0.0
aF0.0
aF7.949997425079346
aF0.05000000074505806
aa(lp720
F0.0
aF0.0
aF7.749997615814209
aF0.05000000074505806
aa(lp721
F0.0
aF0.0
aF7.499997615814209
aF0.05000000074505806
aa(lp722
F0.0
aF0.0
aF6.974997520446777
aF0.05000000074505806
aa(lp723
F0.0
aF0.0
aF6.974997520446777
aF0.05000000074505806
aa(lp724
F0.0
aF0.0
aF5.674997329711914
aF0.05000000074505806
aa(lp725
F0.0
aF0.0
aF5.399997234344482
aF0.05000000074505806
aa(lp726
F0.0
aF0.0
aF4.949997425079346
aF0.05000000074505806
aa(lp727
F0.0
aF0.0
aF4.549997329711914
aF0.05000000074505806
aa(lp728
F0.0
aF0.0
aF4.224997520446777
aF0.05000000074505806
aa(lp729
F0.0
aF0.0
aF3.799997568130493
aF0.05000000074505806
aa(lp730
F0.0
aF0.0
aF3.499997615814209
aF0.05000000074505806
aa(lp731
F0.0
aF0.0
aF3.3999977111816406
aF0.05000000074505806
aa(lp732
F0.0
aF0.0
aF2.6749978065490723
aF0.05000000074505806
aa(lp733
F0.0
aF0.0
aF2.574997901916504
aF0.05000000074505806
aa(lp734
F0.0
aF0.0
aF2.3999979496002197
aF0.05000000074505806
aa(lp735
F0.0
aF0.0
aF1.8499979972839355
aF0.05000000074505806
aa(lp736
F0.0
aF0.0
aF1.6249979734420776
aF0.05000000074505806
aa(lp737
F0.0
aF0.0
aF1.3499979972839355
aF0.05000000074505806
aa(lp738
F0.0
aF0.0
aF1.2249979972839355
aF0.05000000074505806
aa(lp739
F0.0
aF0.0
aF1.0249979496002197
aF0.05000000074505806
aa(lp740
F0.0
aF0.0
aF0.6999979615211487
aF0.05000000074505806
aa(lp741
F0.0
aF0.0
aF0.6999979615211487
aF0.05000000074505806
aa(lp742
F0.0
aF0.0
aF0.49999797344207764
aF0.05000000074505806
aa(lp743
F0.0
aF0.0
aF0.32499799132347107
aF0.05000000074505806
aa(lp744
F0.0
aF0.0
aF0.32499799132347107
aF0.05000000074505806
aa(lp745
F0.0
aF0.0
aF0.024998009204864502
aF0.05000000074505806
aa(lp746
F0.0
aF0.0
aF0.024998009204864502
aF0.05000000074505806
aa(lp747
F0.0
aF0.0
aF-0.15000197291374207
aF0.05000000074505806
aa(lp748
F0.0
aF0.0
aF-0.2250019758939743
aF0.05000000074505806
aa(lp749
F0.0
aF0.0
aF-0.2250019758939743
aF0.05000000074505806
aa(lp750
F0.0
aF0.0
aF-0.27500197291374207
aF0.05000000074505806
aa(lp751
F0.0
aF0.0
aF-0.27500197291374207
aF0.05000000074505806
aa(lp752
F0.0
aF0.0
aF-0.27500197291374207
aF0.05000000074505806
aa(lp753
F0.0
aF0.0
aF-0.27500197291374207
aF0.05000000074505806
aa(lp754
F0.0
aF0.0
aF-0.30000197887420654
aF0.05000000074505806
aa(lp755
F0.0
aF0.0
aF-0.30000197887420654
aF0.05000000074505806
aa(lp756
F0.0
aF0.0
aF-0.30000197887420654
aF0.05000000074505806
aa(lp757
F0.0
aF0.0
aF-0.30000197887420654
aF0.05000000074505806
aa(lp758
F0.0
aF0.0
aF-0.30000197887420654
aF0.05000000074505806
aa(lp759
F0.0
aF0.0
aF-0.30000197887420654
aF0.05000000074505806
aa(lp760
F0.0
aF0.0
aF-0.30000197887420654
aF0.05000000074505806
aa(lp761
F0.0
aF0.0
aF-0.30000197887420654
aF0.05000000074505806
aa(lp762
F0.0
aF0.0
aF-0.30000197887420654
aF0.05000000074505806
aa(lp763
F0.0
aF0.0
aF-0.30000197887420654
aF0.05000000074505806
aa(lp764
F0.0
aF0.0
aF-0.30000197887420654
aF0.05000000074505806
aa(lp765
F0.0
aF0.0
aF-0.30000197887420654
aF0.05000000074505806
aa(lp766
F0.0
aF0.0
aF-0.30000197887420654
aF0.05000000074505806
aa(lp767
F0.0
aF0.0
aF-0.30000197887420654
aF0.05000000074505806
aa(lp768
F0.0
aF0.0
aF-0.30000197887420654
aF0.05000000074505806
aa(lp769
F0.0
aF0.0
aF-0.30000197887420654
aF0.05000000074505806
aa(lp770
F0.0
aF0.0
aF-0.30000197887420654
aF0.05000000074505806
aa(lp771
F0.0
aF0.0
aF-0.30000197887420654
aF0.05000000074505806
aa(lp772
F0.0
aF0.0
aF-0.30000197887420654
aF0.05000000074505806
aa(lp773
F0.0
aF0.0
aF-0.30000197887420654
aF0.05000000074505806
aa(lp774
F0.0
aF0.0
aF-0.30000197887420654
aF0.05000000074505806
aa(lp775
F0.0
aF0.0
aF-0.30000197887420654
aF0.05000000074505806
aa(lp776
F0.0
aF0.0
aF-0.30000197887420654
aF0.05000000074505806
aa(lp777
F0.0
aF0.0
aF-0.30000197887420654
aF0.05000000074505806
aa(lp778
F0.0
aF0.0
aF-0.30000197887420654
aF0.05000000074505806
aa(lp779
F0.0
aF0.0
aF-0.30000197887420654
aF0.05000000074505806
aa(lp780
F0.0
aF0.0
aF-0.30000197887420654
aF0.05000000074505806
aa(lp781
F0.0
aF0.0
aF-0.30000197887420654
aF0.05000000074505806
aa(lp782
F0.0
aF0.0
aF-0.30000197887420654
aF0.05000000074505806
aa(lp783
F0.0
aF0.0
aF-0.30000197887420654
aF0.05000000074505806
aa(lp784
F0.0
aF0.0
aF-0.30000197887420654
aF0.05000000074505806
aa(lp785
F0.0
aF0.0
aF-0.30000197887420654
aF0.05000000074505806
aa(lp786
F0.0
aF0.0
aF-0.30000197887420654
aF0.05000000074505806
aa(lp787
F0.0
aF0.0
aF-0.30000197887420654
aF0.05000000074505806
aa(lp788
F0.0
aF0.0
aF-0.30000197887420654
aF0.05000000074505806
aa(lp789
F0.0
aF0.0
aF-0.30000197887420654
aF0.05000000074505806
aa(lp790
F0.0
aF0.0
aF-0.30000197887420654
aF0.05000000074505806
aa(lp791
F0.0
aF0.0
aF-0.30000197887420654
aF0.05000000074505806
aa(lp792
F0.0
aF0.0
aF-0.30000197887420654
aF0.05000000074505806
aa(lp793
F0.0
aF0.0
aF-0.30000197887420654
aF0.05000000074505806
aa(lp794
F0.0
aF0.0
aF-0.30000197887420654
aF0.05000000074505806
aa(lp795
F0.0
aF0.0
aF-0.30000197887420654
aF0.05000000074505806
aa(lp796
F0.0
aF0.0
aF-0.30000197887420654
aF0.05000000074505806
aa(lp797
F0.0
aF0.0
aF-0.30000197887420654
aF0.05000000074505806
aa(lp798
F0.0
aF0.0
aF-0.30000197887420654
aF0.05000000074505806
aa(lp799
F0.0
aF0.0
aF-0.30000197887420654
aF0.05000000074505806
aa(lp800
F0.0
aF0.0
aF-0.30000197887420654
aF0.05000000074505806
aa(lp801
F0.0
aF0.0
aF-0.30000197887420654
aF0.05000000074505806
aa(lp802
F0.0
aF0.0
aF-0.30000197887420654
aF0.05000000074505806
aa(lp803
F0.0
aF0.0
aF-0.30000197887420654
aF0.05000000074505806
aa(lp804
F0.0
aF0.0
aF-0.30000197887420654
aF0.05000000074505806
aa(lp805
F0.0
aF0.0
aF-0.30000197887420654
aF0.05000000074505806
aa(lp806
F0.0
aF0.0
aF-0.30000197887420654
aF0.05000000074505806
aa(lp807
F0.0
aF0.0
aF-0.30000197887420654
aF0.05000000074505806
aa(lp808
F0.0
aF0.0
aF-0.30000197887420654
aF0.05000000074505806
aa(lp809
F0.0
aF0.0
aF-0.30000197887420654
aF0.05000000074505806
aa(lp810
F0.0
aF0.0
aF-0.30000197887420654
aF0.05000000074505806
aa(lp811
F0.0
aF0.0
aF-0.30000197887420654
aF0.05000000074505806
aa(lp812
F0.0
aF0.0
aF-0.30000197887420654
aF0.05000000074505806
aa(lp813
F0.0
aF0.0
aF-0.30000197887420654
aF0.05000000074505806
aa(lp814
F0.0
aF0.0
aF-0.30000197887420654
aF0.05000000074505806
aa(lp815
F0.0
aF0.0
aF-0.30000197887420654
aF0.05000000074505806
aa(lp816
F0.0
aF0.0
aF-0.30000197887420654
aF0.05000000074505806
aa(lp817
F0.0
aF0.0
aF-0.30000197887420654
aF0.05000000074505806
aa(lp818
F0.0
aF0.0
aF-0.30000197887420654
aF0.05000000074505806
aa(lp819
F0.0
aF0.0
aF-0.2500019669532776
aF0.05000000074505806
aa(lp820
F0.0
aF0.0
aF-0.17500197887420654
aF0.05000000074505806
aa(lp821
F0.0
aF0.0
aF-0.15000197291374207
aF0.05000000074505806
aa(lp822
F0.0
aF0.0
aF-0.1250019669532776
aF0.05000000074505806
aa(lp823
F0.0
aF0.0
aF-0.07500196993350983
aF0.05000000074505806
aa(lp824
F0.0
aF0.0
aF-0.025001972913742065
aF0.05000000074505806
aa(lp825
F0.0
aF0.0
aF0.049998022615909576
aF0.05000000074505806
aa(lp826
F0.0
aF0.0
aF0.17499801516532898
aF0.05000000074505806
aa(lp827
F0.0
aF0.0
aF0.299998015165329
aF0.05000000074505806
aa(lp828
F0.0
aF0.0
aF0.424998015165329
aF0.05000000074505806
aa(lp829
F0.0
aF0.0
aF0.47499799728393555
aF0.05000000074505806
aa(lp830
F0.0
aF0.0
aF0.5749980211257935
aF0.05000000074505806
aa(lp831
F0.0
aF0.0
aF0.6499980092048645
aF0.05000000074505806
aa(lp832
F0.0
aF0.0
aF0.7499980330467224
aF0.05000000074505806
aa(lp833
F0.0
aF0.0
aF0.7999980449676514
aF0.05000000074505806
aa(lp834
F0.0
aF0.0
aF0.8999980092048645
aF0.05000000074505806
aa(lp835
F0.0
aF0.0
aF0.9249979853630066
aF0.05000000074505806
aa(lp836
F0.0
aF0.0
aF1.0249979496002197
aF0.05000000074505806
aa(lp837
F0.0
aF0.0
aF1.074997901916504
aF0.05000000074505806
aa(lp838
F0.0
aF0.0
aF1.1499979496002197
aF0.05000000074505806
aa(lp839
F0.0
aF0.0
aF1.374997854232788
aF0.05000000074505806
aa(lp840
F0.0
aF0.0
aF1.449997901916504
aF0.05000000074505806
aa(lp841
F0.0
aF0.0
aF1.5249978303909302
aF0.05000000074505806
aa(lp842
F0.0
aF0.0
aF1.5499978065490723
aF0.05000000074505806
aa(lp843
F0.0
aF0.0
aF1.6499977111816406
aF0.05000000074505806
aa(lp844
F0.0
aF0.0
aF1.6499977111816406
aF0.05000000074505806
aa(lp845
F0.0
aF0.0
aF1.6999976634979248
aF0.05000000074505806
aa(lp846
F0.0
aF0.0
aF1.7749977111816406
aF0.05000000074505806
aa(lp847
F0.0
aF0.0
aF1.7749977111816406
aF0.05000000074505806
aa(lp848
F0.0
aF0.0
aF1.8249976634979248
aF0.05000000074505806
aa(lp849
F0.0
aF0.0
aF1.874997615814209
aF0.05000000074505806
aa(lp850
F0.0
aF0.0
aF1.874997615814209
aF0.05000000074505806
aa(lp851
F0.0
aF0.0
aF1.899997591972351
aF0.05000000074505806
aa(lp852
F0.0
aF0.0
aF1.9249975681304932
aF0.05000000074505806
aa(lp853
F0.0
aF0.0
aF1.9249975681304932
aF0.05000000074505806
aa(lp854
F0.0
aF0.0
aF1.9499975442886353
aF0.05000000074505806
aa(lp855
F0.0
aF0.0
aF1.9749975204467773
aF0.05000000074505806
aa(lp856
F0.0
aF0.0
aF1.9999974966049194
aF0.05000000074505806
aa(lp857
F0.0
aF0.0
aF1.9999974966049194
aF0.05000000074505806
aa(lp858
F0.0
aF0.0
aF1.9999974966049194
aF0.05000000074505806
aa(lp859
F0.0
aF0.0
aF1.9999974966049194
aF0.05000000074505806
aa(lp860
F0.0
aF0.0
aF1.9999974966049194
aF0.05000000074505806
aa(lp861
F0.0
aF0.0
aF1.9999974966049194
aF0.05000000074505806
aa(lp862
F0.0
aF0.0
aF1.9999974966049194
aF0.05000000074505806
aa(lp863
F0.0
aF0.0
aF1.9999974966049194
aF0.05000000074505806
aa(lp864
F0.0
aF0.0
aF1.9999974966049194
aF0.05000000074505806
aa(lp865
F0.0
aF0.0
aF2.0249974727630615
aF0.05000000074505806
aa(lp866
F0.0
aF0.0
aF2.0249974727630615
aF0.05000000074505806
aa(lp867
F0.0
aF0.0
aF2.0249974727630615
aF0.05000000074505806
aa(lp868
F0.0
aF0.0
aF2.0249974727630615
aF0.05000000074505806
aa(lp869
F0.0
aF0.0
aF2.0249974727630615
aF0.05000000074505806
aa(lp870
F0.0
aF0.0
aF2.0249974727630615
aF0.05000000074505806
aa(lp871
F0.0
aF0.0
aF2.0249974727630615
aF0.05000000074505806
aa(lp872
F0.0
aF0.0
aF2.0249974727630615
aF0.05000000074505806
aa(lp873
F0.0
aF0.0
aF2.0249974727630615
aF0.05000000074505806
aa(lp874
F0.0
aF0.0
aF2.0249974727630615
aF0.05000000074505806
aa(lp875
F0.0
aF0.0
aF2.0249974727630615
aF0.05000000074505806
aa(lp876
F0.0
aF0.0
aF2.0249974727630615
aF0.05000000074505806
aa(lp877
F0.0
aF0.0
aF2.0249974727630615
aF0.05000000074505806
aa(lp878
F0.0
aF0.0
aF2.0249974727630615
aF0.05000000074505806
aa(lp879
F0.0
aF0.0
aF2.0249974727630615
aF0.05000000074505806
aa(lp880
F0.0
aF0.0
aF2.0249974727630615
aF0.05000000074505806
aa(lp881
F0.0
aF0.0
aF2.0249974727630615
aF0.05000000074505806
aa(lp882
F0.0
aF0.0
aF2.0249974727630615
aF0.05000000074505806
aa(lp883
F0.0
aF0.0
aF2.0249974727630615
aF0.05000000074505806
aa(lp884
F0.0
aF0.0
aF2.0249974727630615
aF0.05000000074505806
aa(lp885
F0.0
aF0.0
aF2.0249974727630615
aF0.05000000074505806
aa(lp886
F0.0
aF0.0
aF2.0249974727630615
aF0.05000000074505806
aa(lp887
F0.0
aF0.0
aF2.0249974727630615
aF0.05000000074505806
aa(lp888
F0.0
aF0.0
aF2.0249974727630615
aF0.05000000074505806
aa(lp889
F0.0
aF0.0
aF2.0249974727630615
aF0.05000000074505806
aa(lp890
F0.0
aF0.0
aF2.0249974727630615
aF0.05000000074505806
aa(lp891
F0.0
aF0.0
aF2.0249974727630615
aF0.05000000074505806
aa(lp892
F0.0
aF0.0
aF2.0249974727630615
aF0.05000000074505806
aa(lp893
F0.0
aF0.0
aF2.0249974727630615
aF0.05000000074505806
aa(lp894
F0.0
aF0.0
aF2.0249974727630615
aF0.05000000074505806
aa(lp895
F0.0
aF0.0
aF2.0249974727630615
aF0.05000000074505806
aa(lp896
F0.0
aF0.0
aF2.0249974727630615
aF0.05000000074505806
aa(lp897
F0.0
aF0.0
aF2.0249974727630615
aF0.05000000074505806
aa(lp898
F0.0
aF0.0
aF2.0249974727630615
aF0.05000000074505806
aa(lp899
F0.0
aF0.0
aF2.0249974727630615
aF0.05000000074505806
aa(lp900
F0.0
aF0.0
aF2.0249974727630615
aF0.05000000074505806
aa(lp901
F0.0
aF0.0
aF2.0249974727630615
aF0.05000000074505806
aa(lp902
F0.0
aF0.0
aF2.0249974727630615
aF0.05000000074505806
aa(lp903
F0.0
aF0.0
aF2.0249974727630615
aF0.05000000074505806
aa(lp904
F0.0
aF0.0
aF2.0249974727630615
aF0.05000000074505806
aa(lp905
F0.0
aF0.0
aF2.0249974727630615
aF0.05000000074505806
aa(lp906
F0.0
aF0.0
aF2.0249974727630615
aF0.05000000074505806
aa(lp907
F0.0
aF0.0
aF2.0249974727630615
aF0.05000000074505806
aa(lp908
F0.0
aF0.0
aF2.0249974727630615
aF0.05000000074505806
aa(lp909
F0.0
aF0.0
aF2.0249974727630615
aF0.05000000074505806
aa(lp910
F0.0
aF0.0
aF2.0249974727630615
aF0.05000000074505806
aa(lp911
F0.0
aF0.0
aF2.0249974727630615
aF0.05000000074505806
aa(lp912
F0.0
aF0.0
aF2.0249974727630615
aF0.05000000074505806
aa(lp913
F0.0
aF0.0
aF2.0249974727630615
aF0.05000000074505806
aa(lp914
F0.0
aF0.0
aF2.0249974727630615
aF0.05000000074505806
aa(lp915
F0.0
aF0.0
aF2.0249974727630615
aF0.05000000074505806
aa(lp916
F0.0
aF0.0
aF2.0249974727630615
aF0.05000000074505806
aa(lp917
F0.0
aF0.0
aF2.0249974727630615
aF0.05000000074505806
aa(lp918
F0.0
aF0.0
aF2.0249974727630615
aF0.05000000074505806
aa(lp919
F0.0
aF0.0
aF2.0249974727630615
aF0.05000000074505806
aa(lp920
F0.0
aF0.0
aF2.0249974727630615
aF0.05000000074505806
aa(lp921
F0.0
aF0.0
aF2.0249974727630615
aF0.05000000074505806
aa(lp922
F0.0
aF0.0
aF2.0249974727630615
aF0.05000000074505806
aa(lp923
F0.0
aF0.0
aF2.0249974727630615
aF0.05000000074505806
aa(lp924
F0.0
aF0.0
aF2.0249974727630615
aF0.05000000074505806
aa(lp925
F0.0
aF0.0
aF2.0249974727630615
aF0.05000000074505806
aa(lp926
F0.0
aF0.0
aF2.0249974727630615
aF0.05000000074505806
aa(lp927
F0.0
aF0.0
aF2.0249974727630615
aF0.05000000074505806
aa(lp928
F0.0
aF0.0
aF2.0249974727630615
aF0.05000000074505806
aa(lp929
F0.0
aF0.0
aF2.0249974727630615
aF0.05000000074505806
aa(lp930
F0.0
aF0.0
aF2.0249974727630615
aF0.05000000074505806
aa(lp931
F0.0
aF0.0
aF2.0249974727630615
aF0.05000000074505806
aa(lp932
F0.0
aF0.0
aF2.0249974727630615
aF0.05000000074505806
aa(lp933
F0.0
aF0.0
aF2.0249974727630615
aF0.05000000074505806
aa(lp934
F0.0
aF0.0
aF2.0249974727630615
aF0.05000000074505806
aa(lp935
F0.0
aF0.0
aF2.0249974727630615
aF0.05000000074505806
aa(lp936
F0.0
aF0.0
aF2.0249974727630615
aF0.05000000074505806
aa(lp937
F0.0
aF0.0
aF2.0249974727630615
aF0.05000000074505806
aa(lp938
F0.0
aF0.0
aF2.0249974727630615
aF0.05000000074505806
aa(lp939
F0.0
aF0.0
aF2.0249974727630615
aF0.05000000074505806
aa(lp940
F0.0
aF0.0
aF2.0249974727630615
aF0.05000000074505806
aa(lp941
F0.0
aF0.0
aF2.0249974727630615
aF0.05000000074505806
aa(lp942
F0.0
aF0.0
aF2.0249974727630615
aF0.05000000074505806
aa(lp943
F0.0
aF0.0
aF2.0249974727630615
aF0.05000000074505806
aa(lp944
F0.0
aF0.0
aF2.0249974727630615
aF0.05000000074505806
aa(lp945
F0.0
aF0.0
aF2.0249974727630615
aF0.05000000074505806
aa(lp946
F0.0
aF0.0
aF2.0249974727630615
aF0.05000000074505806
aa.